; ModuleID = 'over64Fixed.cpp'
target datalayout = "e-m:e-i64:64-f80:128-n8:16:32:64-S128"
target triple = "x86_64-unknown-linux-gnu"

%"class.std::ios_base::Init" = type { i8 }
%"class.std::basic_ostream" = type { i32 (...)**, %"class.std::basic_ios" }
%"class.std::basic_ios" = type { %"class.std::ios_base", %"class.std::basic_ostream"*, i8, i8, %"class.std::basic_streambuf"*, %"class.std::ctype"*, %"class.std::num_put"*, %"class.std::num_get"* }
%"class.std::ios_base" = type { i32 (...)**, i64, i64, i32, i32, i32, %"struct.std::ios_base::_Callback_list"*, %"struct.std::ios_base::_Words", [8 x %"struct.std::ios_base::_Words"], i32, %"struct.std::ios_base::_Words"*, %"class.std::locale" }
%"struct.std::ios_base::_Callback_list" = type { %"struct.std::ios_base::_Callback_list"*, void (i32, %"class.std::ios_base"*, i32)*, i32, i32 }
%"struct.std::ios_base::_Words" = type { i8*, i64 }
%"class.std::locale" = type { %"class.std::locale::_Impl"* }
%"class.std::locale::_Impl" = type { i32, %"class.std::locale::facet"**, i64, %"class.std::locale::facet"**, i8** }
%"class.std::locale::facet" = type <{ i32 (...)**, i32, [4 x i8] }>
%"class.std::basic_streambuf" = type { i32 (...)**, i8*, i8*, i8*, i8*, i8*, i8*, %"class.std::locale" }
%"class.std::ctype" = type <{ %"class.std::locale::facet.base", [4 x i8], %struct.__locale_struct*, i8, [7 x i8], i32*, i32*, i16*, i8, [256 x i8], [256 x i8], i8, [6 x i8] }>
%"class.std::locale::facet.base" = type <{ i32 (...)**, i32 }>
%struct.__locale_struct = type { [13 x %struct.__locale_data*], i16*, i32*, i32*, [13 x i8*] }
%struct.__locale_data = type opaque
%"class.std::num_put" = type { %"class.std::locale::facet.base", [4 x i8] }
%"class.std::num_get" = type { %"class.std::locale::facet.base", [4 x i8] }
%class.ap_int = type { %class.ap_private }
%class.ap_private = type { [16 x i64] }
%"class.std::__cxx11::basic_string" = type { %"struct.std::__cxx11::basic_string<char, std::char_traits<char>, std::allocator<char> >::_Alloc_hider", i64, %union.anon }
%"struct.std::__cxx11::basic_string<char, std::char_traits<char>, std::allocator<char> >::_Alloc_hider" = type { i8* }
%union.anon = type { i64, [8 x i8] }
%class.ap_private.0 = type { [16 x i64] }
%"class.std::allocator" = type { i8 }
%"class.std::__cxx11::basic_istringstream" = type { %"class.std::basic_istream.base", %"class.std::__cxx11::basic_stringbuf", %"class.std::basic_ios" }
%"class.std::basic_istream.base" = type { i32 (...)**, i64 }
%"class.std::__cxx11::basic_stringbuf" = type { %"class.std::basic_streambuf", i32, %"class.std::__cxx11::basic_string" }
%"class.std::basic_istream" = type { i32 (...)**, i64, %"class.std::basic_ios" }

@_ZStL8__ioinit = internal global %"class.std::ios_base::Init" zeroinitializer, align 1
@__dso_handle = external global i8
@.str = private unnamed_addr constant [26 x i8] c"2343429223372036854775807\00", align 1
@_ZSt4cout = external global %"class.std::basic_ostream"
@.str1 = private unnamed_addr constant [95 x i8] c"(radix == 10 || radix == 8 || radix == 16 || radix == 2) && \22Radix should be 2, 8, 10, or 16!\22\00", align 1
@.str2 = private unnamed_addr constant [61 x i8] c"../../../../include/cnl/FPGA/Xilinx/include/etc/ap_private.h\00", align 1
@__PRETTY_FUNCTION__._ZNK10ap_privateILi1024ELb1ELb0EE8toStringEhb = private unnamed_addr constant [117 x i8] c"std::string ap_private<1024, true, false>::toString(uint8_t, bool) const [_AP_W = 1024, _AP_S = true, _AP_C = false]\00", align 1
@_ZZNK10ap_privateILi1024ELb1ELb0EE8toStringEhbE6digits = linkonce_odr global [16 x i8*] [i8* getelementptr inbounds ([2 x i8]* @.str3, i32 0, i32 0), i8* getelementptr inbounds ([2 x i8]* @.str4, i32 0, i32 0), i8* getelementptr inbounds ([2 x i8]* @.str5, i32 0, i32 0), i8* getelementptr inbounds ([2 x i8]* @.str6, i32 0, i32 0), i8* getelementptr inbounds ([2 x i8]* @.str7, i32 0, i32 0), i8* getelementptr inbounds ([2 x i8]* @.str8, i32 0, i32 0), i8* getelementptr inbounds ([2 x i8]* @.str9, i32 0, i32 0), i8* getelementptr inbounds ([2 x i8]* @.str10, i32 0, i32 0), i8* getelementptr inbounds ([2 x i8]* @.str11, i32 0, i32 0), i8* getelementptr inbounds ([2 x i8]* @.str12, i32 0, i32 0), i8* getelementptr inbounds ([2 x i8]* @.str13, i32 0, i32 0), i8* getelementptr inbounds ([2 x i8]* @.str14, i32 0, i32 0), i8* getelementptr inbounds ([2 x i8]* @.str15, i32 0, i32 0), i8* getelementptr inbounds ([2 x i8]* @.str16, i32 0, i32 0), i8* getelementptr inbounds ([2 x i8]* @.str17, i32 0, i32 0), i8* getelementptr inbounds ([2 x i8]* @.str18, i32 0, i32 0)], align 16
@.str3 = private unnamed_addr constant [2 x i8] c"0\00", align 1
@.str4 = private unnamed_addr constant [2 x i8] c"1\00", align 1
@.str5 = private unnamed_addr constant [2 x i8] c"2\00", align 1
@.str6 = private unnamed_addr constant [2 x i8] c"3\00", align 1
@.str7 = private unnamed_addr constant [2 x i8] c"4\00", align 1
@.str8 = private unnamed_addr constant [2 x i8] c"5\00", align 1
@.str9 = private unnamed_addr constant [2 x i8] c"6\00", align 1
@.str10 = private unnamed_addr constant [2 x i8] c"7\00", align 1
@.str11 = private unnamed_addr constant [2 x i8] c"8\00", align 1
@.str12 = private unnamed_addr constant [2 x i8] c"9\00", align 1
@.str13 = private unnamed_addr constant [2 x i8] c"A\00", align 1
@.str14 = private unnamed_addr constant [2 x i8] c"B\00", align 1
@.str15 = private unnamed_addr constant [2 x i8] c"C\00", align 1
@.str16 = private unnamed_addr constant [2 x i8] c"D\00", align 1
@.str17 = private unnamed_addr constant [2 x i8] c"E\00", align 1
@.str18 = private unnamed_addr constant [2 x i8] c"F\00", align 1
@.str19 = private unnamed_addr constant [2 x i8] c"-\00", align 1
@.str20 = private unnamed_addr constant [3 x i8] c"0b\00", align 1
@.str21 = private unnamed_addr constant [3 x i8] c"0o\00", align 1
@.str22 = private unnamed_addr constant [3 x i8] c"0x\00", align 1
@.str23 = private unnamed_addr constant [21 x i8] c"\22invalid radix\22 && 0\00", align 1
@.str24 = private unnamed_addr constant [33 x i8] c"digit < radix && \22divide failed\22\00", align 1
@.str25 = private unnamed_addr constant [54 x i8] c"getActiveBits() <= 64 && \22Too many bits for uint64_t\22\00", align 1
@__PRETTY_FUNCTION__._ZNK10ap_privateILi1024ELb0ELb0EE12getZExtValueEv = private unnamed_addr constant [107 x i8] c"uint64_t ap_private<1024, false, false>::getZExtValue() const [_AP_W = 1024, _AP_S = false, _AP_C = false]\00", align 1
@.str26 = private unnamed_addr constant [44 x i8] c"lhsWords >= rhsWords && \22Fractional result\22\00", align 1
@__PRETTY_FUNCTION__._ZN14ap_private_ops6divideILi1024ELb0EEEvRK10ap_privateIXT_EXT0_EXleT_Li64EEEjS4_jPS2_S5_ = private unnamed_addr constant [202 x i8] c"void ap_private_ops::divide(const ap_private<_AP_W, _AP_S> &, uint32_t, const ap_private<_AP_W, _AP_S> &, uint32_t, ap_private<_AP_W, _AP_S> *, ap_private<_AP_W, _AP_S> *) [_AP_W = 1024, _AP_S = false]\00", align 1
@.str27 = private unnamed_addr constant [28 x i8] c"n != 0 && \22Divide by zero?\22\00", align 1
@.str28 = private unnamed_addr constant [68 x i8] c"!Quotient->isSingleWord() && \22Quotient ap_private not large enough\22\00", align 1
@.str29 = private unnamed_addr constant [70 x i8] c"!Remainder->isSingleWord() && \22Remainder ap_private not large enough\22\00", align 1
@.str30 = private unnamed_addr constant [29 x i8] c"u && \22Must provide dividend\22\00", align 1
@__PRETTY_FUNCTION__._ZN14ap_private_opsL8KnuthDivEPjS0_S0_S0_jj = private unnamed_addr constant [98 x i8] c"void ap_private_ops::KnuthDiv(uint32_t *, uint32_t *, uint32_t *, uint32_t *, uint32_t, uint32_t)\00", align 1
@.str31 = private unnamed_addr constant [28 x i8] c"v && \22Must provide divisor\22\00", align 1
@.str32 = private unnamed_addr constant [29 x i8] c"q && \22Must provide quotient\22\00", align 1
@.str33 = private unnamed_addr constant [57 x i8] c"u != v && u != q && v != q && \22Must us different memory\22\00", align 1
@.str34 = private unnamed_addr constant [23 x i8] c"n>1 && \22n must be > 1\22\00", align 1
@_ZZNK10ap_privateILi1024ELb1ELb0EE10isNegativeEvE4mask = linkonce_odr constant i64 -9223372036854775808, align 8
@.str35 = private unnamed_addr constant [45 x i8] c"!val.empty() && \22The input string is empty.\22\00", align 1
@__PRETTY_FUNCTION__._ZN10ap_privateILi1024ELb1ELb0EEC2ERKNSt7__cxx1112basic_stringIcSt11char_traitsIcESaIcEEEh = private unnamed_addr constant [116 x i8] c"ap_private<1024, true, false>::ap_private(const std::string &, uint8_t) [_AP_W = 1024, _AP_S = true, _AP_C = false]\00", align 1
@__PRETTY_FUNCTION__._ZN10ap_privateILi1024ELb1ELb0EE10fromStringEPKcjh = private unnamed_addr constant [124 x i8] c"void ap_private<1024, true, false>::fromString(const char *, uint32_t, uint8_t) [_AP_W = 1024, _AP_S = true, _AP_C = false]\00", align 1
@.str36 = private unnamed_addr constant [25 x i8] c"str && \22String is null?\22\00", align 1
@.str37 = private unnamed_addr constant [60 x i8] c"(slen <= numbits || radix != 2) && \22Insufficient bit width\22\00", align 1
@.str38 = private unnamed_addr constant [68 x i8] c"((slen - 1)*3 <= numbits || radix != 8) && \22Insufficient bit width\22\00", align 1
@.str39 = private unnamed_addr constant [69 x i8] c"((slen - 1)*4 <= numbits || radix != 16) && \22Insufficient bit width\22\00", align 1
@.str40 = private unnamed_addr constant [74 x i8] c"(((slen -1)*64)/22 <= numbits || radix != 10) && \22Insufficient bit width\22\00", align 1
@.str41 = private unnamed_addr constant [35 x i8] c"0 && \22Invalid hex digit in string\22\00", align 1
@.str42 = private unnamed_addr constant [34 x i8] c"0 && \22huh? we shouldn't get here\22\00", align 1
@.str43 = private unnamed_addr constant [41 x i8] c"0 && \22Invalid character in digit string\22\00", align 1
@.str44 = private unnamed_addr constant [9 x i8] c"xlen > 0\00", align 1
@__PRETTY_FUNCTION__._ZN14ap_private_opsL3mulEPmPKmjS2_jj = private unnamed_addr constant [103 x i8] c"void ap_private_ops::mul(uint64_t *, const uint64_t *, uint32_t, const uint64_t *, uint32_t, uint32_t)\00", align 1
@.str45 = private unnamed_addr constant [9 x i8] c"ylen > 0\00", align 1
@.str46 = private unnamed_addr constant [23 x i8] c"destlen >= xlen + ylen\00", align 1
@_ZZN14ap_private_opsL5mul_1EPmPKmjmE12two_power_32 = internal constant i64 4294967296, align 8
@.str47 = private unnamed_addr constant [56 x i8] c"shiftAmt <= BitWidth && \22Invalid shift amount, too big\22\00", align 1
@__PRETTY_FUNCTION__._ZNK10ap_privateILi1024ELb1ELb0EE3shlEj = private unnamed_addr constant [127 x i8] c"ap_private<_AP_W, _AP_S, false> ap_private<1024, true, false>::shl(uint32_t) const [_AP_W = 1024, _AP_S = true, _AP_C = false]\00", align 1
@.str48 = private unnamed_addr constant [35 x i8] c"bigVal && \22Null pointer detected!\22\00", align 1
@__PRETTY_FUNCTION__._ZN10ap_privateILi1024ELb1ELb0EEC2EjPKm = private unnamed_addr constant [114 x i8] c"ap_private<1024, true, false>::ap_private(uint32_t, const uint64_t *) [_AP_W = 1024, _AP_S = true, _AP_C = false]\00", align 1
@.str49 = private unnamed_addr constant [3 x i8] c"0X\00", align 1
@.str50 = private unnamed_addr constant [3 x i8] c"0B\00", align 1
@.str51 = private unnamed_addr constant [3 x i8] c"0O\00", align 1
@.str52 = private unnamed_addr constant [19 x i8] c"startPos <= expPos\00", align 1
@__PRETTY_FUNCTION__._ZN14ap_private_opsL11parseStringERKNSt7__cxx1112basic_stringIcSt11char_traitsIcESaIcEEERi = private unnamed_addr constant [68 x i8] c"std::string ap_private_ops::parseString(const std::string &, int &)\00", align 1
@.str53 = private unnamed_addr constant [3 x i8] c"0.\00", align 1
@.str54 = private unnamed_addr constant [4 x i8] c"-0.\00", align 1
@.str55 = private unnamed_addr constant [1 x i8] zeroinitializer, align 1
@.str56 = private unnamed_addr constant [2 x i8] c".\00", align 1
@.str57 = private unnamed_addr constant [4 x i8] c"000\00", align 1
@.str58 = private unnamed_addr constant [4 x i8] c"001\00", align 1
@.str59 = private unnamed_addr constant [4 x i8] c"010\00", align 1
@.str60 = private unnamed_addr constant [4 x i8] c"011\00", align 1
@.str61 = private unnamed_addr constant [4 x i8] c"100\00", align 1
@.str62 = private unnamed_addr constant [4 x i8] c"101\00", align 1
@.str63 = private unnamed_addr constant [4 x i8] c"110\00", align 1
@.str64 = private unnamed_addr constant [4 x i8] c"111\00", align 1
@__PRETTY_FUNCTION__._ZN14ap_private_opsL7oct2BinEc = private unnamed_addr constant [42 x i8] c"std::string ap_private_ops::oct2Bin(char)\00", align 1
@.str65 = private unnamed_addr constant [5 x i8] c"0000\00", align 1
@.str66 = private unnamed_addr constant [5 x i8] c"0001\00", align 1
@.str67 = private unnamed_addr constant [5 x i8] c"0010\00", align 1
@.str68 = private unnamed_addr constant [5 x i8] c"0011\00", align 1
@.str69 = private unnamed_addr constant [5 x i8] c"0100\00", align 1
@.str70 = private unnamed_addr constant [5 x i8] c"0101\00", align 1
@.str71 = private unnamed_addr constant [5 x i8] c"0110\00", align 1
@.str72 = private unnamed_addr constant [5 x i8] c"0111\00", align 1
@.str73 = private unnamed_addr constant [5 x i8] c"1000\00", align 1
@.str74 = private unnamed_addr constant [5 x i8] c"1001\00", align 1
@.str75 = private unnamed_addr constant [5 x i8] c"1010\00", align 1
@.str76 = private unnamed_addr constant [5 x i8] c"1011\00", align 1
@.str77 = private unnamed_addr constant [5 x i8] c"1100\00", align 1
@.str78 = private unnamed_addr constant [5 x i8] c"1101\00", align 1
@.str79 = private unnamed_addr constant [5 x i8] c"1110\00", align 1
@.str80 = private unnamed_addr constant [5 x i8] c"1111\00", align 1
@__PRETTY_FUNCTION__._ZN14ap_private_opsL7hex2BinEc = private unnamed_addr constant [42 x i8] c"std::string ap_private_ops::hex2Bin(char)\00", align 1
@llvm.global_ctors = appending global [1 x { i32, void ()*, i8* }] [{ i32, void ()*, i8* } { i32 65535, void ()* @_GLOBAL__sub_I_over64Fixed.cpp, i8* null }]

define internal void @__cxx_global_var_init() section ".text.startup" {
entry:
  call void @_ZNSt8ios_base4InitC1Ev(%"class.std::ios_base::Init"* @_ZStL8__ioinit)
  %0 = call i32 @__cxa_atexit(void (i8*)* bitcast (void (%"class.std::ios_base::Init"*)* @_ZNSt8ios_base4InitD1Ev to void (i8*)*), i8* getelementptr inbounds (%"class.std::ios_base::Init"* @_ZStL8__ioinit, i32 0, i32 0), i8* @__dso_handle) #2
  ret void
}

declare void @_ZNSt8ios_base4InitC1Ev(%"class.std::ios_base::Init"*) #0

; Function Attrs: nounwind
declare void @_ZNSt8ios_base4InitD1Ev(%"class.std::ios_base::Init"*) #1

; Function Attrs: nounwind
declare i32 @__cxa_atexit(void (i8*)*, i8*, i8*) #2

; Function Attrs: uwtable
define i32 @main(i32 %argc, i8** %argv) #3 {
entry:
  %retval = alloca i32, align 4
  %argc.addr = alloca i32, align 4
  %argv.addr = alloca i8**, align 8
  %k = alloca %class.ap_int, align 8
  %exn.slot = alloca i8*
  %ehselector.slot = alloca i32
  %cleanup.dest.slot = alloca i32
  store i32 0, i32* %retval
  store i32 %argc, i32* %argc.addr, align 4
  store i8** %argv, i8*** %argv.addr, align 8
  call void @_ZN6ap_intILi1024EEC2EPKc(%class.ap_int* %k, i8* getelementptr inbounds ([26 x i8]* @.str, i32 0, i32 0))
  %0 = bitcast %class.ap_int* %k to %class.ap_private*
  %call = invoke dereferenceable(272) %"class.std::basic_ostream"* @_ZlsILi1024ELb1EERSoS0_RK10ap_privateIXT_EXT0_EXleT_Li64EEE(%"class.std::basic_ostream"* dereferenceable(272) @_ZSt4cout, %class.ap_private* dereferenceable(128) %0)
          to label %invoke.cont unwind label %lpad

invoke.cont:                                      ; preds = %entry
  %call2 = invoke dereferenceable(272) %"class.std::basic_ostream"* @_ZNSolsEPFRSoS_E(%"class.std::basic_ostream"* %call, %"class.std::basic_ostream"* (%"class.std::basic_ostream"*)* @_ZSt4endlIcSt11char_traitsIcEERSt13basic_ostreamIT_T0_ES6_)
          to label %invoke.cont1 unwind label %lpad

invoke.cont1:                                     ; preds = %invoke.cont
  store i32 0, i32* %retval
  store i32 1, i32* %cleanup.dest.slot
  call void @_ZN6ap_intILi1024EED2Ev(%class.ap_int* %k) #2
  %1 = load i32* %retval
  ret i32 %1

lpad:                                             ; preds = %invoke.cont, %entry
  %2 = landingpad { i8*, i32 } personality i8* bitcast (i32 (...)* @__gxx_personality_v0 to i8*)
          cleanup
  %3 = extractvalue { i8*, i32 } %2, 0
  store i8* %3, i8** %exn.slot
  %4 = extractvalue { i8*, i32 } %2, 1
  store i32 %4, i32* %ehselector.slot
  call void @_ZN6ap_intILi1024EED2Ev(%class.ap_int* %k) #2
  br label %eh.resume

eh.resume:                                        ; preds = %lpad
  %exn = load i8** %exn.slot
  %sel = load i32* %ehselector.slot
  %lpad.val = insertvalue { i8*, i32 } undef, i8* %exn, 0
  %lpad.val3 = insertvalue { i8*, i32 } %lpad.val, i32 %sel, 1
  resume { i8*, i32 } %lpad.val3
}

; Function Attrs: inlinehint uwtable
define linkonce_odr void @_ZN6ap_intILi1024EEC2EPKc(%class.ap_int* %this, i8* %v) unnamed_addr #4 align 2 {
entry:
  %this.addr = alloca %class.ap_int*, align 8
  %v.addr = alloca i8*, align 8
  store %class.ap_int* %this, %class.ap_int** %this.addr, align 8
  store i8* %v, i8** %v.addr, align 8
  %this1 = load %class.ap_int** %this.addr
  %0 = bitcast %class.ap_int* %this1 to %class.ap_private*
  %1 = load i8** %v.addr, align 8
  call void @_ZN10ap_privateILi1024ELb1ELb0EEC2EPKc(%class.ap_private* %0, i8* %1)
  ret void
}

; Function Attrs: inlinehint uwtable
define linkonce_odr dereferenceable(272) %"class.std::basic_ostream"* @_ZlsILi1024ELb1EERSoS0_RK10ap_privateIXT_EXT0_EXleT_Li64EEE(%"class.std::basic_ostream"* dereferenceable(272) %out, %class.ap_private* dereferenceable(128) %op) #4 {
entry:
  %out.addr = alloca %"class.std::basic_ostream"*, align 8
  %op.addr = alloca %class.ap_private*, align 8
  %v = alloca %class.ap_private, align 8
  %basefield = alloca i32, align 4
  %exn.slot = alloca i8*
  %ehselector.slot = alloca i32
  %radix = alloca i32, align 4
  %str = alloca %"class.std::__cxx11::basic_string", align 8
  %cleanup.dest.slot = alloca i32
  store %"class.std::basic_ostream"* %out, %"class.std::basic_ostream"** %out.addr, align 8
  store %class.ap_private* %op, %class.ap_private** %op.addr, align 8
  %0 = load %class.ap_private** %op.addr, align 8
  %1 = bitcast %class.ap_private* %v to i8*
  %2 = bitcast %class.ap_private* %0 to i8*
  call void @llvm.memcpy.p0i8.p0i8.i64(i8* %1, i8* %2, i64 128, i32 8, i1 false)
  %3 = load %"class.std::basic_ostream"** %out.addr, align 8
  %4 = bitcast %"class.std::basic_ostream"* %3 to i8**
  %vtable = load i8** %4
  %vbase.offset.ptr = getelementptr i8* %vtable, i64 -24
  %5 = bitcast i8* %vbase.offset.ptr to i64*
  %vbase.offset = load i64* %5
  %6 = bitcast %"class.std::basic_ostream"* %3 to i8*
  %add.ptr = getelementptr inbounds i8* %6, i64 %vbase.offset
  %7 = bitcast i8* %add.ptr to %"class.std::ios_base"*
  %call = invoke i32 @_ZNKSt8ios_base5flagsEv(%"class.std::ios_base"* %7)
          to label %invoke.cont unwind label %lpad

invoke.cont:                                      ; preds = %entry
  %call2 = invoke i32 @_ZStanSt13_Ios_FmtflagsS_(i32 %call, i32 74)
          to label %invoke.cont1 unwind label %lpad

invoke.cont1:                                     ; preds = %invoke.cont
  store i32 %call2, i32* %basefield, align 4
  %8 = load i32* %basefield, align 4
  %cmp = icmp eq i32 %8, 8
  br i1 %cmp, label %cond.true, label %cond.false

cond.true:                                        ; preds = %invoke.cont1
  br label %cond.end

cond.false:                                       ; preds = %invoke.cont1
  %9 = load i32* %basefield, align 4
  %cmp3 = icmp eq i32 %9, 64
  %cond = select i1 %cmp3, i32 8, i32 10
  br label %cond.end

cond.end:                                         ; preds = %cond.false, %cond.true
  %cond4 = phi i32 [ 16, %cond.true ], [ %cond, %cond.false ]
  store i32 %cond4, i32* %radix, align 4
  %10 = load i32* %radix, align 4
  %conv = trunc i32 %10 to i8
  invoke void @_ZNK10ap_privateILi1024ELb1ELb0EE8toStringEhb(%"class.std::__cxx11::basic_string"* sret %str, %class.ap_private* %v, i8 zeroext %conv, i1 zeroext true)
          to label %invoke.cont5 unwind label %lpad

invoke.cont5:                                     ; preds = %cond.end
  %11 = load %"class.std::basic_ostream"** %out.addr, align 8
  %call8 = invoke dereferenceable(272) %"class.std::basic_ostream"* @_ZStlsIcSt11char_traitsIcESaIcEERSt13basic_ostreamIT_T0_ES7_RKNSt7__cxx1112basic_stringIS4_S5_T1_EE(%"class.std::basic_ostream"* dereferenceable(272) %11, %"class.std::__cxx11::basic_string"* dereferenceable(32) %str)
          to label %invoke.cont7 unwind label %lpad6

invoke.cont7:                                     ; preds = %invoke.cont5
  %12 = load %"class.std::basic_ostream"** %out.addr, align 8
  store i32 1, i32* %cleanup.dest.slot
  call void @_ZNSt7__cxx1112basic_stringIcSt11char_traitsIcESaIcEED1Ev(%"class.std::__cxx11::basic_string"* %str) #2
  call void @_ZN10ap_privateILi1024ELb1ELb0EED2Ev(%class.ap_private* %v) #2
  ret %"class.std::basic_ostream"* %12

lpad:                                             ; preds = %cond.end, %invoke.cont, %entry
  %13 = landingpad { i8*, i32 } personality i8* bitcast (i32 (...)* @__gxx_personality_v0 to i8*)
          cleanup
  %14 = extractvalue { i8*, i32 } %13, 0
  store i8* %14, i8** %exn.slot
  %15 = extractvalue { i8*, i32 } %13, 1
  store i32 %15, i32* %ehselector.slot
  br label %ehcleanup

lpad6:                                            ; preds = %invoke.cont5
  %16 = landingpad { i8*, i32 } personality i8* bitcast (i32 (...)* @__gxx_personality_v0 to i8*)
          cleanup
  %17 = extractvalue { i8*, i32 } %16, 0
  store i8* %17, i8** %exn.slot
  %18 = extractvalue { i8*, i32 } %16, 1
  store i32 %18, i32* %ehselector.slot
  call void @_ZNSt7__cxx1112basic_stringIcSt11char_traitsIcESaIcEED1Ev(%"class.std::__cxx11::basic_string"* %str) #2
  br label %ehcleanup

ehcleanup:                                        ; preds = %lpad6, %lpad
  call void @_ZN10ap_privateILi1024ELb1ELb0EED2Ev(%class.ap_private* %v) #2
  br label %eh.resume

eh.resume:                                        ; preds = %ehcleanup
  %exn = load i8** %exn.slot
  %sel = load i32* %ehselector.slot
  %lpad.val = insertvalue { i8*, i32 } undef, i8* %exn, 0
  %lpad.val9 = insertvalue { i8*, i32 } %lpad.val, i32 %sel, 1
  resume { i8*, i32 } %lpad.val9
}

declare i32 @__gxx_personality_v0(...)

declare dereferenceable(272) %"class.std::basic_ostream"* @_ZNSolsEPFRSoS_E(%"class.std::basic_ostream"*, %"class.std::basic_ostream"* (%"class.std::basic_ostream"*)*) #0

declare dereferenceable(272) %"class.std::basic_ostream"* @_ZSt4endlIcSt11char_traitsIcEERSt13basic_ostreamIT_T0_ES6_(%"class.std::basic_ostream"* dereferenceable(272)) #0

; Function Attrs: inlinehint nounwind uwtable
define linkonce_odr void @_ZN6ap_intILi1024EED2Ev(%class.ap_int* %this) unnamed_addr #5 align 2 {
entry:
  %this.addr = alloca %class.ap_int*, align 8
  store %class.ap_int* %this, %class.ap_int** %this.addr, align 8
  %this1 = load %class.ap_int** %this.addr
  %0 = bitcast %class.ap_int* %this1 to %class.ap_private*
  call void @_ZN10ap_privateILi1024ELb1ELb0EED2Ev(%class.ap_private* %0) #2
  ret void
}

; Function Attrs: nounwind
declare void @llvm.memcpy.p0i8.p0i8.i64(i8* nocapture, i8* nocapture readonly, i64, i32, i1) #2

; Function Attrs: inlinehint nounwind uwtable
define linkonce_odr i32 @_ZStanSt13_Ios_FmtflagsS_(i32 %__a, i32 %__b) #5 {
entry:
  %__a.addr = alloca i32, align 4
  %__b.addr = alloca i32, align 4
  store i32 %__a, i32* %__a.addr, align 4
  store i32 %__b, i32* %__b.addr, align 4
  %0 = load i32* %__a.addr, align 4
  %1 = load i32* %__b.addr, align 4
  %and = and i32 %0, %1
  ret i32 %and
}

; Function Attrs: nounwind uwtable
define linkonce_odr i32 @_ZNKSt8ios_base5flagsEv(%"class.std::ios_base"* %this) #6 align 2 {
entry:
  %this.addr = alloca %"class.std::ios_base"*, align 8
  store %"class.std::ios_base"* %this, %"class.std::ios_base"** %this.addr, align 8
  %this1 = load %"class.std::ios_base"** %this.addr
  %_M_flags = getelementptr inbounds %"class.std::ios_base"* %this1, i32 0, i32 3
  %0 = load i32* %_M_flags, align 4
  ret i32 %0
}

; Function Attrs: inlinehint uwtable
define linkonce_odr void @_ZNK10ap_privateILi1024ELb1ELb0EE8toStringEhb(%"class.std::__cxx11::basic_string"* noalias sret %agg.result, %class.ap_private* %this, i8 zeroext %radix, i1 zeroext %wantSigned) #4 align 2 {
entry:
  %this.addr = alloca %class.ap_private*, align 8
  %radix.addr = alloca i8, align 1
  %wantSigned.addr = alloca i8, align 1
  %nrvo = alloca i1
  %exn.slot = alloca i8*
  %ehselector.slot = alloca i32
  %tmp = alloca %class.ap_private.0, align 8
  %insert_at = alloca i64, align 8
  %leading_zero = alloca i8, align 1
  %agg.tmp.ensured = alloca %class.ap_private.0, align 8
  %shift = alloca i32, align 4
  %mask = alloca i64, align 8
  %zero = alloca %class.ap_private.0, align 8
  %bits = alloca i32, align 4
  %digit = alloca i64, align 8
  %ref.tmp = alloca %class.ap_private.0, align 8
  %cleanup.dest.slot = alloca i32
  %tmp75 = alloca %class.ap_private.0, align 8
  %divisor = alloca %class.ap_private.0, align 8
  %zero81 = alloca %class.ap_private.0, align 8
  %insert_at85 = alloca i64, align 8
  %agg.tmp.ensured94 = alloca %class.ap_private.0, align 8
  %ref.tmp100 = alloca %class.ap_private.0, align 8
  %APdigit = alloca %class.ap_private.0, align 8
  %tmp2 = alloca %class.ap_private.0, align 8
  %digit126 = alloca i64, align 8
  store %class.ap_private* %this, %class.ap_private** %this.addr, align 8
  store i8 %radix, i8* %radix.addr, align 1
  %frombool = zext i1 %wantSigned to i8
  store i8 %frombool, i8* %wantSigned.addr, align 1
  %this1 = load %class.ap_private** %this.addr
  %0 = load i8* %radix.addr, align 1
  %conv = zext i8 %0 to i32
  %cmp = icmp eq i32 %conv, 10
  br i1 %cmp, label %cond.true, label %lor.lhs.false

lor.lhs.false:                                    ; preds = %entry
  %1 = load i8* %radix.addr, align 1
  %conv2 = zext i8 %1 to i32
  %cmp3 = icmp eq i32 %conv2, 8
  br i1 %cmp3, label %cond.true, label %lor.lhs.false4

lor.lhs.false4:                                   ; preds = %lor.lhs.false
  %2 = load i8* %radix.addr, align 1
  %conv5 = zext i8 %2 to i32
  %cmp6 = icmp eq i32 %conv5, 16
  br i1 %cmp6, label %cond.true, label %lor.lhs.false7

lor.lhs.false7:                                   ; preds = %lor.lhs.false4
  %3 = load i8* %radix.addr, align 1
  %conv8 = zext i8 %3 to i32
  %cmp9 = icmp eq i32 %conv8, 2
  br i1 %cmp9, label %cond.true, label %cond.false

cond.true:                                        ; preds = %lor.lhs.false7, %lor.lhs.false4, %lor.lhs.false, %entry
  br label %cond.end

cond.false:                                       ; preds = %lor.lhs.false7
  call void @__assert_fail(i8* getelementptr inbounds ([95 x i8]* @.str1, i32 0, i32 0), i8* getelementptr inbounds ([61 x i8]* @.str2, i32 0, i32 0), i32 5592, i8* getelementptr inbounds ([117 x i8]* @__PRETTY_FUNCTION__._ZNK10ap_privateILi1024ELb1ELb0EE8toStringEhb, i32 0, i32 0)) #12
  unreachable
                                                  ; No predecessors!
  br label %cond.end

cond.end:                                         ; preds = %4, %cond.true
  store i1 false, i1* %nrvo
  call void @_ZNSt7__cxx1112basic_stringIcSt11char_traitsIcESaIcEEC1Ev(%"class.std::__cxx11::basic_string"* %agg.result) #2
  %5 = load i8* %radix.addr, align 1
  %conv10 = zext i8 %5 to i32
  %cmp11 = icmp ne i32 %conv10, 10
  br i1 %cmp11, label %if.then, label %if.end73

if.then:                                          ; preds = %cond.end
  %call = invoke zeroext i1 @_ZNK10ap_privateILi1024ELb1ELb0EEeqEm(%class.ap_private* %this1, i64 0)
          to label %invoke.cont unwind label %lpad

invoke.cont:                                      ; preds = %if.then
  br i1 %call, label %if.then12, label %if.else

if.then12:                                        ; preds = %invoke.cont
  %call14 = invoke dereferenceable(32) %"class.std::__cxx11::basic_string"* @_ZNSt7__cxx1112basic_stringIcSt11char_traitsIcESaIcEEaSEPKc(%"class.std::__cxx11::basic_string"* %agg.result, i8* getelementptr inbounds ([2 x i8]* @.str3, i32 0, i32 0))
          to label %invoke.cont13 unwind label %lpad

invoke.cont13:                                    ; preds = %if.then12
  br label %if.end72

lpad:                                             ; preds = %if.end73, %if.else, %if.then12, %if.then
  %6 = landingpad { i8*, i32 } personality i8* bitcast (i32 (...)* @__gxx_personality_v0 to i8*)
          cleanup
  %7 = extractvalue { i8*, i32 } %6, 0
  store i8* %7, i8** %exn.slot
  %8 = extractvalue { i8*, i32 } %6, 1
  store i32 %8, i32* %ehselector.slot
  br label %ehcleanup146

if.else:                                          ; preds = %invoke.cont
  invoke void @_ZN10ap_privateILi1024ELb0ELb0EEC2ILi1024ELb1EEERKS_IXT_EXT0_ELb0EE(%class.ap_private.0* %tmp, %class.ap_private* dereferenceable(128) %this1)
          to label %invoke.cont15 unwind label %lpad

invoke.cont15:                                    ; preds = %if.else
  store i64 0, i64* %insert_at, align 8
  store i8 1, i8* %leading_zero, align 1
  %9 = load i8* %wantSigned.addr, align 1
  %tobool = trunc i8 %9 to i1
  br i1 %tobool, label %land.lhs.true, label %if.end

land.lhs.true:                                    ; preds = %invoke.cont15
  %call20 = invoke zeroext i1 @_ZNK10ap_privateILi1024ELb1ELb0EE10isNegativeEv(%class.ap_private* %this1)
          to label %invoke.cont19 unwind label %lpad18

invoke.cont19:                                    ; preds = %land.lhs.true
  br i1 %call20, label %if.then21, label %if.end

if.then21:                                        ; preds = %invoke.cont19
  %call23 = invoke dereferenceable(128) %class.ap_private.0* @_ZN10ap_privateILi1024ELb0ELb0EE4flipEv(%class.ap_private.0* %tmp)
          to label %invoke.cont22 unwind label %lpad18

invoke.cont22:                                    ; preds = %if.then21
  invoke void @_ZN10ap_privateILi1024ELb0ELb0EEppEi(%class.ap_private.0* sret %agg.tmp.ensured, %class.ap_private.0* %tmp, i32 0)
          to label %invoke.cont24 unwind label %lpad18

invoke.cont24:                                    ; preds = %invoke.cont22
  call void @_ZN10ap_privateILi1024ELb0ELb0EED2Ev(%class.ap_private.0* %agg.tmp.ensured) #2
  invoke void @_ZN10ap_privateILi1024ELb0ELb0EE21clearUnusedBitsToZeroEv(%class.ap_private.0* %tmp)
          to label %invoke.cont25 unwind label %lpad18

invoke.cont25:                                    ; preds = %invoke.cont24
  %call27 = invoke dereferenceable(32) %"class.std::__cxx11::basic_string"* @_ZNSt7__cxx1112basic_stringIcSt11char_traitsIcESaIcEEaSEPKc(%"class.std::__cxx11::basic_string"* %agg.result, i8* getelementptr inbounds ([2 x i8]* @.str19, i32 0, i32 0))
          to label %invoke.cont26 unwind label %lpad18

invoke.cont26:                                    ; preds = %invoke.cont25
  store i64 1, i64* %insert_at, align 8
  store i8 0, i8* %leading_zero, align 1
  br label %if.end

lpad18:                                           ; preds = %cond.end44, %sw.bb34, %sw.bb31, %sw.bb, %invoke.cont25, %invoke.cont24, %invoke.cont22, %if.then21, %land.lhs.true
  %10 = landingpad { i8*, i32 } personality i8* bitcast (i32 (...)* @__gxx_personality_v0 to i8*)
          cleanup
  %11 = extractvalue { i8*, i32 } %10, 0
  store i8* %11, i8** %exn.slot
  %12 = extractvalue { i8*, i32 } %10, 1
  store i32 %12, i32* %ehselector.slot
  br label %ehcleanup71

if.end:                                           ; preds = %invoke.cont26, %invoke.cont19, %invoke.cont15
  %13 = load i8* %radix.addr, align 1
  %conv28 = zext i8 %13 to i32
  switch i32 %conv28, label %sw.default [
    i32 2, label %sw.bb
    i32 8, label %sw.bb31
    i32 16, label %sw.bb34
  ]

sw.bb:                                            ; preds = %if.end
  %call30 = invoke dereferenceable(32) %"class.std::__cxx11::basic_string"* @_ZNSt7__cxx1112basic_stringIcSt11char_traitsIcESaIcEEpLEPKc(%"class.std::__cxx11::basic_string"* %agg.result, i8* getelementptr inbounds ([3 x i8]* @.str20, i32 0, i32 0))
          to label %invoke.cont29 unwind label %lpad18

invoke.cont29:                                    ; preds = %sw.bb
  br label %sw.epilog

sw.bb31:                                          ; preds = %if.end
  %call33 = invoke dereferenceable(32) %"class.std::__cxx11::basic_string"* @_ZNSt7__cxx1112basic_stringIcSt11char_traitsIcESaIcEEpLEPKc(%"class.std::__cxx11::basic_string"* %agg.result, i8* getelementptr inbounds ([3 x i8]* @.str21, i32 0, i32 0))
          to label %invoke.cont32 unwind label %lpad18

invoke.cont32:                                    ; preds = %sw.bb31
  br label %sw.epilog

sw.bb34:                                          ; preds = %if.end
  %call36 = invoke dereferenceable(32) %"class.std::__cxx11::basic_string"* @_ZNSt7__cxx1112basic_stringIcSt11char_traitsIcESaIcEEpLEPKc(%"class.std::__cxx11::basic_string"* %agg.result, i8* getelementptr inbounds ([3 x i8]* @.str22, i32 0, i32 0))
          to label %invoke.cont35 unwind label %lpad18

invoke.cont35:                                    ; preds = %sw.bb34
  br label %sw.epilog

sw.default:                                       ; preds = %if.end
  call void @__assert_fail(i8* getelementptr inbounds ([21 x i8]* @.str23, i32 0, i32 0), i8* getelementptr inbounds ([61 x i8]* @.str2, i32 0, i32 0), i32 5625, i8* getelementptr inbounds ([117 x i8]* @__PRETTY_FUNCTION__._ZNK10ap_privateILi1024ELb1ELb0EE8toStringEhb, i32 0, i32 0)) #12
  unreachable

sw.epilog:                                        ; preds = %invoke.cont35, %invoke.cont32, %invoke.cont29
  %14 = load i64* %insert_at, align 8
  %add = add i64 %14, 2
  store i64 %add, i64* %insert_at, align 8
  %15 = load i8* %radix.addr, align 1
  %conv38 = zext i8 %15 to i32
  %cmp39 = icmp eq i32 %conv38, 16
  br i1 %cmp39, label %cond.true40, label %cond.false41

cond.true40:                                      ; preds = %sw.epilog
  br label %cond.end44

cond.false41:                                     ; preds = %sw.epilog
  %16 = load i8* %radix.addr, align 1
  %conv42 = zext i8 %16 to i32
  %cmp43 = icmp eq i32 %conv42, 8
  %cond = select i1 %cmp43, i32 3, i32 1
  br label %cond.end44

cond.end44:                                       ; preds = %cond.false41, %cond.true40
  %cond45 = phi i32 [ 4, %cond.true40 ], [ %cond, %cond.false41 ]
  store i32 %cond45, i32* %shift, align 4
  %17 = load i8* %radix.addr, align 1
  %conv47 = zext i8 %17 to i32
  %sub = sub nsw i32 %conv47, 1
  %conv48 = sext i32 %sub to i64
  store i64 %conv48, i64* %mask, align 8
  invoke void @_ZN10ap_privateILi1024ELb0ELb0EEC2Eib(%class.ap_private.0* %zero, i32 0, i1 zeroext true)
          to label %invoke.cont50 unwind label %lpad18

invoke.cont50:                                    ; preds = %cond.end44
  store i32 0, i32* %bits, align 4
  br label %while.cond

while.cond:                                       ; preds = %invoke.cont62, %invoke.cont50
  %call54 = invoke zeroext i1 @_ZNK10ap_privateILi1024ELb0ELb0EE2neILb0EEEbRKS_ILi1024EXT_ELb0EE(%class.ap_private.0* %tmp, %class.ap_private.0* dereferenceable(128) %zero)
          to label %invoke.cont53 unwind label %lpad52

invoke.cont53:                                    ; preds = %while.cond
  br i1 %call54, label %while.body, label %while.end

while.body:                                       ; preds = %invoke.cont53
  %call57 = invoke dereferenceable(8) i64* @_ZN10ap_privateILi1024ELb0ELb0EE7get_VALEv(%class.ap_private.0* %tmp)
          to label %invoke.cont56 unwind label %lpad52

invoke.cont56:                                    ; preds = %while.body
  %18 = load i64* %call57
  %19 = load i64* %mask, align 8
  %and = and i64 %18, %19
  store i64 %and, i64* %digit, align 8
  %20 = load i64* %insert_at, align 8
  %21 = load i64* %digit, align 8
  %arrayidx = getelementptr inbounds [16 x i8*]* @_ZZNK10ap_privateILi1024ELb1ELb0EE8toStringEhbE6digits, i32 0, i64 %21
  %22 = load i8** %arrayidx, align 8
  %call59 = invoke dereferenceable(32) %"class.std::__cxx11::basic_string"* @_ZNSt7__cxx1112basic_stringIcSt11char_traitsIcESaIcEE6insertEmPKc(%"class.std::__cxx11::basic_string"* %agg.result, i64 %20, i8* %22)
          to label %invoke.cont58 unwind label %lpad52

invoke.cont58:                                    ; preds = %invoke.cont56
  %23 = load i32* %shift, align 4
  invoke void @_ZNK10ap_privateILi1024ELb0ELb0EE4lshrEj(%class.ap_private.0* sret %ref.tmp, %class.ap_private.0* %tmp, i32 %23)
          to label %invoke.cont60 unwind label %lpad52

invoke.cont60:                                    ; preds = %invoke.cont58
  %call63 = invoke dereferenceable(128) %class.ap_private.0* @_ZN10ap_privateILi1024ELb0ELb0EEaSERKS0_(%class.ap_private.0* %tmp, %class.ap_private.0* dereferenceable(128) %ref.tmp)
          to label %invoke.cont62 unwind label %lpad61

invoke.cont62:                                    ; preds = %invoke.cont60
  call void @_ZN10ap_privateILi1024ELb0ELb0EED2Ev(%class.ap_private.0* %ref.tmp) #2
  %24 = load i32* %bits, align 4
  %inc = add i32 %24, 1
  store i32 %inc, i32* %bits, align 4
  br label %while.cond

lpad52:                                           ; preds = %if.then67, %invoke.cont58, %invoke.cont56, %while.body, %while.cond
  %25 = landingpad { i8*, i32 } personality i8* bitcast (i32 (...)* @__gxx_personality_v0 to i8*)
          cleanup
  %26 = extractvalue { i8*, i32 } %25, 0
  store i8* %26, i8** %exn.slot
  %27 = extractvalue { i8*, i32 } %25, 1
  store i32 %27, i32* %ehselector.slot
  br label %ehcleanup

lpad61:                                           ; preds = %invoke.cont60
  %28 = landingpad { i8*, i32 } personality i8* bitcast (i32 (...)* @__gxx_personality_v0 to i8*)
          cleanup
  %29 = extractvalue { i8*, i32 } %28, 0
  store i8* %29, i8** %exn.slot
  %30 = extractvalue { i8*, i32 } %28, 1
  store i32 %30, i32* %ehselector.slot
  call void @_ZN10ap_privateILi1024ELb0ELb0EED2Ev(%class.ap_private.0* %ref.tmp) #2
  br label %ehcleanup

while.end:                                        ; preds = %invoke.cont53
  %31 = load i32* %shift, align 4
  %32 = load i32* %bits, align 4
  %mul = mul i32 %32, %31
  store i32 %mul, i32* %bits, align 4
  %33 = load i32* %bits, align 4
  %cmp64 = icmp ult i32 %33, 1024
  br i1 %cmp64, label %land.lhs.true65, label %if.end70

land.lhs.true65:                                  ; preds = %while.end
  %34 = load i8* %leading_zero, align 1
  %tobool66 = trunc i8 %34 to i1
  br i1 %tobool66, label %if.then67, label %if.end70

if.then67:                                        ; preds = %land.lhs.true65
  %35 = load i64* %insert_at, align 8
  %36 = load i8** getelementptr inbounds ([16 x i8*]* @_ZZNK10ap_privateILi1024ELb1ELb0EE8toStringEhbE6digits, i32 0, i64 0), align 8
  %call69 = invoke dereferenceable(32) %"class.std::__cxx11::basic_string"* @_ZNSt7__cxx1112basic_stringIcSt11char_traitsIcESaIcEE6insertEmPKc(%"class.std::__cxx11::basic_string"* %agg.result, i64 %35, i8* %36)
          to label %invoke.cont68 unwind label %lpad52

invoke.cont68:                                    ; preds = %if.then67
  br label %if.end70

if.end70:                                         ; preds = %invoke.cont68, %land.lhs.true65, %while.end
  call void @_ZN10ap_privateILi1024ELb0ELb0EED2Ev(%class.ap_private.0* %zero) #2
  call void @_ZN10ap_privateILi1024ELb0ELb0EED2Ev(%class.ap_private.0* %tmp) #2
  br label %if.end72

ehcleanup:                                        ; preds = %lpad61, %lpad52
  call void @_ZN10ap_privateILi1024ELb0ELb0EED2Ev(%class.ap_private.0* %zero) #2
  br label %ehcleanup71

ehcleanup71:                                      ; preds = %ehcleanup, %lpad18
  call void @_ZN10ap_privateILi1024ELb0ELb0EED2Ev(%class.ap_private.0* %tmp) #2
  br label %ehcleanup146

if.end72:                                         ; preds = %if.end70, %invoke.cont13
  store i1 true, i1* %nrvo
  store i32 1, i32* %cleanup.dest.slot
  br label %cleanup

if.end73:                                         ; preds = %cond.end
  invoke void @_ZN10ap_privateILi1024ELb0ELb0EEC2ILi1024ELb1EEERKS_IXT_EXT0_ELb0EE(%class.ap_private.0* %tmp75, %class.ap_private* dereferenceable(128) %this1)
          to label %invoke.cont76 unwind label %lpad

invoke.cont76:                                    ; preds = %if.end73
  %37 = load i8* %radix.addr, align 1
  invoke void @_ZN10ap_privateILi1024ELb0ELb0EEC2Ehb(%class.ap_private.0* %divisor, i8 zeroext %37, i1 zeroext false)
          to label %invoke.cont79 unwind label %lpad78

invoke.cont79:                                    ; preds = %invoke.cont76
  invoke void @_ZN10ap_privateILi1024ELb0ELb0EEC2Eib(%class.ap_private.0* %zero81, i32 0, i1 zeroext true)
          to label %invoke.cont83 unwind label %lpad82

invoke.cont83:                                    ; preds = %invoke.cont79
  store i64 0, i64* %insert_at85, align 8
  %38 = load i8* %wantSigned.addr, align 1
  %tobool86 = trunc i8 %38 to i1
  br i1 %tobool86, label %land.lhs.true87, label %if.end99

land.lhs.true87:                                  ; preds = %invoke.cont83
  %call90 = invoke zeroext i1 @_ZNK10ap_privateILi1024ELb1ELb0EE10isNegativeEv(%class.ap_private* %this1)
          to label %invoke.cont89 unwind label %lpad88

invoke.cont89:                                    ; preds = %land.lhs.true87
  br i1 %call90, label %if.then91, label %if.end99

if.then91:                                        ; preds = %invoke.cont89
  %call93 = invoke dereferenceable(128) %class.ap_private.0* @_ZN10ap_privateILi1024ELb0ELb0EE4flipEv(%class.ap_private.0* %tmp75)
          to label %invoke.cont92 unwind label %lpad88

invoke.cont92:                                    ; preds = %if.then91
  invoke void @_ZN10ap_privateILi1024ELb0ELb0EEppEi(%class.ap_private.0* sret %agg.tmp.ensured94, %class.ap_private.0* %tmp75, i32 0)
          to label %invoke.cont95 unwind label %lpad88

invoke.cont95:                                    ; preds = %invoke.cont92
  call void @_ZN10ap_privateILi1024ELb0ELb0EED2Ev(%class.ap_private.0* %agg.tmp.ensured94) #2
  invoke void @_ZN10ap_privateILi1024ELb0ELb0EE21clearUnusedBitsToZeroEv(%class.ap_private.0* %tmp75)
          to label %invoke.cont96 unwind label %lpad88

invoke.cont96:                                    ; preds = %invoke.cont95
  %call98 = invoke dereferenceable(32) %"class.std::__cxx11::basic_string"* @_ZNSt7__cxx1112basic_stringIcSt11char_traitsIcESaIcEEaSEPKc(%"class.std::__cxx11::basic_string"* %agg.result, i8* getelementptr inbounds ([2 x i8]* @.str19, i32 0, i32 0))
          to label %invoke.cont97 unwind label %lpad88

invoke.cont97:                                    ; preds = %invoke.cont96
  store i64 1, i64* %insert_at85, align 8
  br label %if.end99

lpad78:                                           ; preds = %invoke.cont76
  %39 = landingpad { i8*, i32 } personality i8* bitcast (i32 (...)* @__gxx_personality_v0 to i8*)
          cleanup
  %40 = extractvalue { i8*, i32 } %39, 0
  store i8* %40, i8** %exn.slot
  %41 = extractvalue { i8*, i32 } %39, 1
  store i32 %41, i32* %ehselector.slot
  br label %ehcleanup145

lpad82:                                           ; preds = %invoke.cont79
  %42 = landingpad { i8*, i32 } personality i8* bitcast (i32 (...)* @__gxx_personality_v0 to i8*)
          cleanup
  %43 = extractvalue { i8*, i32 } %42, 0
  store i8* %43, i8** %exn.slot
  %44 = extractvalue { i8*, i32 } %42, 1
  store i32 %44, i32* %ehselector.slot
  br label %ehcleanup144

lpad88:                                           ; preds = %while.body113, %while.cond110, %if.then106, %if.end99, %invoke.cont96, %invoke.cont95, %invoke.cont92, %if.then91, %land.lhs.true87
  %45 = landingpad { i8*, i32 } personality i8* bitcast (i32 (...)* @__gxx_personality_v0 to i8*)
          cleanup
  %46 = extractvalue { i8*, i32 } %45, 0
  store i8* %46, i8** %exn.slot
  %47 = extractvalue { i8*, i32 } %45, 1
  store i32 %47, i32* %ehselector.slot
  br label %ehcleanup143

if.end99:                                         ; preds = %invoke.cont97, %invoke.cont89, %invoke.cont83
  invoke void @_ZN10ap_privateILi1024ELb0ELb0EEC2Eib(%class.ap_private.0* %ref.tmp100, i32 0, i1 zeroext true)
          to label %invoke.cont101 unwind label %lpad88

invoke.cont101:                                   ; preds = %if.end99
  %call104 = invoke zeroext i1 @_ZNK10ap_privateILi1024ELb0ELb0EEeqERKS0_(%class.ap_private.0* %tmp75, %class.ap_private.0* dereferenceable(128) %ref.tmp100)
          to label %invoke.cont103 unwind label %lpad102

invoke.cont103:                                   ; preds = %invoke.cont101
  call void @_ZN10ap_privateILi1024ELb0ELb0EED2Ev(%class.ap_private.0* %ref.tmp100) #2
  br i1 %call104, label %if.then106, label %if.else109

if.then106:                                       ; preds = %invoke.cont103
  %call108 = invoke dereferenceable(32) %"class.std::__cxx11::basic_string"* @_ZNSt7__cxx1112basic_stringIcSt11char_traitsIcESaIcEEaSEPKc(%"class.std::__cxx11::basic_string"* %agg.result, i8* getelementptr inbounds ([2 x i8]* @.str3, i32 0, i32 0))
          to label %invoke.cont107 unwind label %lpad88

invoke.cont107:                                   ; preds = %if.then106
  br label %if.end142

lpad102:                                          ; preds = %invoke.cont101
  %48 = landingpad { i8*, i32 } personality i8* bitcast (i32 (...)* @__gxx_personality_v0 to i8*)
          cleanup
  %49 = extractvalue { i8*, i32 } %48, 0
  store i8* %49, i8** %exn.slot
  %50 = extractvalue { i8*, i32 } %48, 1
  store i32 %50, i32* %ehselector.slot
  call void @_ZN10ap_privateILi1024ELb0ELb0EED2Ev(%class.ap_private.0* %ref.tmp100) #2
  br label %ehcleanup143

if.else109:                                       ; preds = %invoke.cont103
  br label %while.cond110

while.cond110:                                    ; preds = %invoke.cont137, %if.else109
  %call112 = invoke zeroext i1 @_ZNK10ap_privateILi1024ELb0ELb0EE2neILb0EEEbRKS_ILi1024EXT_ELb0EE(%class.ap_private.0* %tmp75, %class.ap_private.0* dereferenceable(128) %zero81)
          to label %invoke.cont111 unwind label %lpad88

invoke.cont111:                                   ; preds = %while.cond110
  br i1 %call112, label %while.body113, label %while.end141

while.body113:                                    ; preds = %invoke.cont111
  invoke void @_ZN10ap_privateILi1024ELb0ELb0EEC2Eib(%class.ap_private.0* %APdigit, i32 0, i1 zeroext true)
          to label %invoke.cont115 unwind label %lpad88

invoke.cont115:                                   ; preds = %while.body113
  invoke void @_ZN10ap_privateILi1024ELb0ELb0EEC2Eib(%class.ap_private.0* %tmp2, i32 0, i1 zeroext true)
          to label %invoke.cont118 unwind label %lpad117

invoke.cont118:                                   ; preds = %invoke.cont115
  %call121 = invoke i32 @_ZNK10ap_privateILi1024ELb0ELb0EE11getNumWordsEv(%class.ap_private.0* %tmp75)
          to label %invoke.cont120 unwind label %lpad119

invoke.cont120:                                   ; preds = %invoke.cont118
  %call123 = invoke i32 @_ZNK10ap_privateILi1024ELb0ELb0EE11getNumWordsEv(%class.ap_private.0* %divisor)
          to label %invoke.cont122 unwind label %lpad119

invoke.cont122:                                   ; preds = %invoke.cont120
  invoke void @_ZN14ap_private_ops6divideILi1024ELb0EEEvRK10ap_privateIXT_EXT0_EXleT_Li64EEEjS4_jPS2_S5_(%class.ap_private.0* dereferenceable(128) %tmp75, i32 %call121, %class.ap_private.0* dereferenceable(128) %divisor, i32 %call123, %class.ap_private.0* %tmp2, %class.ap_private.0* %APdigit)
          to label %invoke.cont124 unwind label %lpad119

invoke.cont124:                                   ; preds = %invoke.cont122
  %call128 = invoke i64 @_ZNK10ap_privateILi1024ELb0ELb0EE12getZExtValueEv(%class.ap_private.0* %APdigit)
          to label %invoke.cont127 unwind label %lpad119

invoke.cont127:                                   ; preds = %invoke.cont124
  store i64 %call128, i64* %digit126, align 8
  %51 = load i64* %digit126, align 8
  %52 = load i8* %radix.addr, align 1
  %conv129 = zext i8 %52 to i64
  %cmp130 = icmp ult i64 %51, %conv129
  br i1 %cmp130, label %cond.true131, label %cond.false132

cond.true131:                                     ; preds = %invoke.cont127
  br label %cond.end133

cond.false132:                                    ; preds = %invoke.cont127
  call void @__assert_fail(i8* getelementptr inbounds ([33 x i8]* @.str24, i32 0, i32 0), i8* getelementptr inbounds ([61 x i8]* @.str2, i32 0, i32 0), i32 5668, i8* getelementptr inbounds ([117 x i8]* @__PRETTY_FUNCTION__._ZNK10ap_privateILi1024ELb1ELb0EE8toStringEhb, i32 0, i32 0)) #12
  unreachable

lpad117:                                          ; preds = %invoke.cont115
  %53 = landingpad { i8*, i32 } personality i8* bitcast (i32 (...)* @__gxx_personality_v0 to i8*)
          cleanup
  %54 = extractvalue { i8*, i32 } %53, 0
  store i8* %54, i8** %exn.slot
  %55 = extractvalue { i8*, i32 } %53, 1
  store i32 %55, i32* %ehselector.slot
  br label %ehcleanup140

lpad119:                                          ; preds = %invoke.cont135, %cond.end133, %invoke.cont124, %invoke.cont122, %invoke.cont120, %invoke.cont118
  %56 = landingpad { i8*, i32 } personality i8* bitcast (i32 (...)* @__gxx_personality_v0 to i8*)
          cleanup
  %57 = extractvalue { i8*, i32 } %56, 0
  store i8* %57, i8** %exn.slot
  %58 = extractvalue { i8*, i32 } %56, 1
  store i32 %58, i32* %ehselector.slot
  call void @_ZN10ap_privateILi1024ELb0ELb0EED2Ev(%class.ap_private.0* %tmp2) #2
  br label %ehcleanup140
                                                  ; No predecessors!
  br label %cond.end133

cond.end133:                                      ; preds = %59, %cond.true131
  %60 = load i64* %insert_at85, align 8
  %61 = load i64* %digit126, align 8
  %arrayidx134 = getelementptr inbounds [16 x i8*]* @_ZZNK10ap_privateILi1024ELb1ELb0EE8toStringEhbE6digits, i32 0, i64 %61
  %62 = load i8** %arrayidx134, align 8
  %call136 = invoke dereferenceable(32) %"class.std::__cxx11::basic_string"* @_ZNSt7__cxx1112basic_stringIcSt11char_traitsIcESaIcEE6insertEmPKc(%"class.std::__cxx11::basic_string"* %agg.result, i64 %60, i8* %62)
          to label %invoke.cont135 unwind label %lpad119

invoke.cont135:                                   ; preds = %cond.end133
  %call138 = invoke dereferenceable(128) %class.ap_private.0* @_ZN10ap_privateILi1024ELb0ELb0EEaSERKS0_(%class.ap_private.0* %tmp75, %class.ap_private.0* dereferenceable(128) %tmp2)
          to label %invoke.cont137 unwind label %lpad119

invoke.cont137:                                   ; preds = %invoke.cont135
  call void @_ZN10ap_privateILi1024ELb0ELb0EED2Ev(%class.ap_private.0* %tmp2) #2
  call void @_ZN10ap_privateILi1024ELb0ELb0EED2Ev(%class.ap_private.0* %APdigit) #2
  br label %while.cond110

ehcleanup140:                                     ; preds = %lpad119, %lpad117
  call void @_ZN10ap_privateILi1024ELb0ELb0EED2Ev(%class.ap_private.0* %APdigit) #2
  br label %ehcleanup143

while.end141:                                     ; preds = %invoke.cont111
  br label %if.end142

if.end142:                                        ; preds = %while.end141, %invoke.cont107
  store i1 true, i1* %nrvo
  store i32 1, i32* %cleanup.dest.slot
  call void @_ZN10ap_privateILi1024ELb0ELb0EED2Ev(%class.ap_private.0* %zero81) #2
  call void @_ZN10ap_privateILi1024ELb0ELb0EED2Ev(%class.ap_private.0* %divisor) #2
  call void @_ZN10ap_privateILi1024ELb0ELb0EED2Ev(%class.ap_private.0* %tmp75) #2
  br label %cleanup

ehcleanup143:                                     ; preds = %ehcleanup140, %lpad102, %lpad88
  call void @_ZN10ap_privateILi1024ELb0ELb0EED2Ev(%class.ap_private.0* %zero81) #2
  br label %ehcleanup144

ehcleanup144:                                     ; preds = %ehcleanup143, %lpad82
  call void @_ZN10ap_privateILi1024ELb0ELb0EED2Ev(%class.ap_private.0* %divisor) #2
  br label %ehcleanup145

ehcleanup145:                                     ; preds = %ehcleanup144, %lpad78
  call void @_ZN10ap_privateILi1024ELb0ELb0EED2Ev(%class.ap_private.0* %tmp75) #2
  br label %ehcleanup146

cleanup:                                          ; preds = %if.end142, %if.end72
  %nrvo.val = load i1* %nrvo
  br i1 %nrvo.val, label %nrvo.skipdtor, label %nrvo.unused

nrvo.unused:                                      ; preds = %cleanup
  call void @_ZNSt7__cxx1112basic_stringIcSt11char_traitsIcESaIcEED1Ev(%"class.std::__cxx11::basic_string"* %agg.result) #2
  br label %nrvo.skipdtor

nrvo.skipdtor:                                    ; preds = %nrvo.unused, %cleanup
  ret void

ehcleanup146:                                     ; preds = %ehcleanup145, %ehcleanup71, %lpad
  call void @_ZNSt7__cxx1112basic_stringIcSt11char_traitsIcESaIcEED1Ev(%"class.std::__cxx11::basic_string"* %agg.result) #2
  br label %eh.resume

eh.resume:                                        ; preds = %ehcleanup146
  %exn = load i8** %exn.slot
  %sel = load i32* %ehselector.slot
  %lpad.val = insertvalue { i8*, i32 } undef, i8* %exn, 0
  %lpad.val147 = insertvalue { i8*, i32 } %lpad.val, i32 %sel, 1
  resume { i8*, i32 } %lpad.val147
}

declare dereferenceable(272) %"class.std::basic_ostream"* @_ZStlsIcSt11char_traitsIcESaIcEERSt13basic_ostreamIT_T0_ES7_RKNSt7__cxx1112basic_stringIS4_S5_T1_EE(%"class.std::basic_ostream"* dereferenceable(272), %"class.std::__cxx11::basic_string"* dereferenceable(32)) #0

; Function Attrs: nounwind
declare void @_ZNSt7__cxx1112basic_stringIcSt11char_traitsIcESaIcEED1Ev(%"class.std::__cxx11::basic_string"*) #1

; Function Attrs: inlinehint nounwind uwtable
define linkonce_odr void @_ZN10ap_privateILi1024ELb1ELb0EED2Ev(%class.ap_private* %this) unnamed_addr #5 align 2 {
entry:
  %this.addr = alloca %class.ap_private*, align 8
  store %class.ap_private* %this, %class.ap_private** %this.addr, align 8
  %this1 = load %class.ap_private** %this.addr
  invoke void @_ZN10ap_privateILi1024ELb1ELb0EE12check_canaryEv(%class.ap_private* %this1)
          to label %invoke.cont unwind label %terminate.lpad

invoke.cont:                                      ; preds = %entry
  ret void

terminate.lpad:                                   ; preds = %entry
  %0 = landingpad { i8*, i32 } personality i8* bitcast (i32 (...)* @__gxx_personality_v0 to i8*)
          catch i8* null
  %1 = extractvalue { i8*, i32 } %0, 0
  call void @__clang_call_terminate(i8* %1) #12
  unreachable
}

; Function Attrs: inlinehint nounwind uwtable
define linkonce_odr void @_ZN10ap_privateILi1024ELb1ELb0EE12check_canaryEv(%class.ap_private* %this) #5 align 2 {
entry:
  %this.addr = alloca %class.ap_private*, align 8
  store %class.ap_private* %this, %class.ap_private** %this.addr, align 8
  %this1 = load %class.ap_private** %this.addr
  ret void
}

; Function Attrs: noinline noreturn nounwind
define linkonce_odr hidden void @__clang_call_terminate(i8*) #7 {
  %2 = call i8* @__cxa_begin_catch(i8* %0) #2
  call void @_ZSt9terminatev() #12
  unreachable
}

declare i8* @__cxa_begin_catch(i8*)

declare void @_ZSt9terminatev()

; Function Attrs: noreturn nounwind
declare void @__assert_fail(i8*, i8*, i32, i8*) #8

; Function Attrs: nounwind
declare void @_ZNSt7__cxx1112basic_stringIcSt11char_traitsIcESaIcEEC1Ev(%"class.std::__cxx11::basic_string"*) #1

; Function Attrs: inlinehint uwtable
define linkonce_odr zeroext i1 @_ZNK10ap_privateILi1024ELb1ELb0EEeqEm(%class.ap_private* %this, i64 %Val) #4 align 2 {
entry:
  %retval = alloca i1, align 1
  %this.addr = alloca %class.ap_private*, align 8
  %Val.addr = alloca i64, align 8
  %n = alloca i32, align 4
  store %class.ap_private* %this, %class.ap_private** %this.addr, align 8
  store i64 %Val, i64* %Val.addr, align 8
  %this1 = load %class.ap_private** %this.addr
  %call = call i32 @_ZNK10ap_privateILi1024ELb1ELb0EE13getActiveBitsEv(%class.ap_private* %this1)
  store i32 %call, i32* %n, align 4
  %0 = load i32* %n, align 4
  %cmp = icmp ule i32 %0, 64
  br i1 %cmp, label %if.then, label %if.else

if.then:                                          ; preds = %entry
  %pVal = getelementptr inbounds %class.ap_private* %this1, i32 0, i32 0
  %arrayidx = getelementptr inbounds [16 x i64]* %pVal, i32 0, i64 0
  %1 = load i64* %arrayidx, align 8
  %2 = load i64* %Val.addr, align 8
  %cmp2 = icmp eq i64 %1, %2
  store i1 %cmp2, i1* %retval
  br label %return

if.else:                                          ; preds = %entry
  store i1 false, i1* %retval
  br label %return

return:                                           ; preds = %if.else, %if.then
  %3 = load i1* %retval
  ret i1 %3
}

declare dereferenceable(32) %"class.std::__cxx11::basic_string"* @_ZNSt7__cxx1112basic_stringIcSt11char_traitsIcESaIcEEaSEPKc(%"class.std::__cxx11::basic_string"*, i8*) #0

; Function Attrs: inlinehint uwtable
define linkonce_odr void @_ZN10ap_privateILi1024ELb0ELb0EEC2ILi1024ELb1EEERKS_IXT_EXT0_ELb0EE(%class.ap_private.0* %this, %class.ap_private* dereferenceable(128) %that) unnamed_addr #4 align 2 {
entry:
  %this.addr = alloca %class.ap_private.0*, align 8
  %that.addr = alloca %class.ap_private*, align 8
  store %class.ap_private.0* %this, %class.ap_private.0** %this.addr, align 8
  store %class.ap_private* %that, %class.ap_private** %that.addr, align 8
  %this1 = load %class.ap_private.0** %this.addr
  call void @_ZN10ap_privateILi1024ELb0ELb0EE10set_canaryEv(%class.ap_private.0* %this1)
  %0 = load %class.ap_private** %that.addr, align 8
  %call = call dereferenceable(128) %class.ap_private.0* @_ZN10ap_privateILi1024ELb0ELb0EEaSILi1024ELb1EEERS0_RKS_IXT_EXT0_EXleT_Li64EEE(%class.ap_private.0* %this1, %class.ap_private* dereferenceable(128) %0)
  call void @_ZN10ap_privateILi1024ELb0ELb0EE12check_canaryEv(%class.ap_private.0* %this1)
  ret void
}

; Function Attrs: inlinehint nounwind uwtable
define linkonce_odr zeroext i1 @_ZNK10ap_privateILi1024ELb1ELb0EE10isNegativeEv(%class.ap_private* %this) #5 align 2 {
entry:
  %this.addr = alloca %class.ap_private*, align 8
  store %class.ap_private* %this, %class.ap_private** %this.addr, align 8
  %this1 = load %class.ap_private** %this.addr
  %pVal = getelementptr inbounds %class.ap_private* %this1, i32 0, i32 0
  %arrayidx = getelementptr inbounds [16 x i64]* %pVal, i32 0, i64 15
  %0 = load i64* %arrayidx, align 8
  %and = and i64 %0, -9223372036854775808
  %tobool = icmp ne i64 %and, 0
  ret i1 %tobool
}

; Function Attrs: nounwind uwtable
define linkonce_odr dereferenceable(128) %class.ap_private.0* @_ZN10ap_privateILi1024ELb0ELb0EE4flipEv(%class.ap_private.0* %this) #6 align 2 {
entry:
  %this.addr = alloca %class.ap_private.0*, align 8
  %i = alloca i32, align 4
  store %class.ap_private.0* %this, %class.ap_private.0** %this.addr, align 8
  %this1 = load %class.ap_private.0** %this.addr
  store i32 0, i32* %i, align 4
  br label %for.cond

for.cond:                                         ; preds = %for.inc, %entry
  %0 = load i32* %i, align 4
  %cmp = icmp slt i32 %0, 16
  br i1 %cmp, label %for.body, label %for.end

for.body:                                         ; preds = %for.cond
  %1 = load i32* %i, align 4
  %idxprom = sext i32 %1 to i64
  %pVal = getelementptr inbounds %class.ap_private.0* %this1, i32 0, i32 0
  %arrayidx = getelementptr inbounds [16 x i64]* %pVal, i32 0, i64 %idxprom
  %2 = load i64* %arrayidx, align 8
  %xor = xor i64 %2, -1
  store i64 %xor, i64* %arrayidx, align 8
  br label %for.inc

for.inc:                                          ; preds = %for.body
  %3 = load i32* %i, align 4
  %inc = add nsw i32 %3, 1
  store i32 %inc, i32* %i, align 4
  br label %for.cond

for.end:                                          ; preds = %for.cond
  call void @_ZN10ap_privateILi1024ELb0ELb0EE15clearUnusedBitsEv(%class.ap_private.0* %this1)
  ret %class.ap_private.0* %this1
}

; Function Attrs: inlinehint uwtable
define linkonce_odr void @_ZN10ap_privateILi1024ELb0ELb0EEppEi(%class.ap_private.0* noalias sret %agg.result, %class.ap_private.0* %this, i32) #4 align 2 {
entry:
  %this.addr = alloca %class.ap_private.0*, align 8
  %.addr = alloca i32, align 4
  %nrvo = alloca i1
  %exn.slot = alloca i8*
  %ehselector.slot = alloca i32
  %cleanup.dest.slot = alloca i32
  store %class.ap_private.0* %this, %class.ap_private.0** %this.addr, align 8
  store i32 %0, i32* %.addr, align 4
  %this1 = load %class.ap_private.0** %this.addr
  store i1 false, i1* %nrvo
  %1 = bitcast %class.ap_private.0* %agg.result to i8*
  %2 = bitcast %class.ap_private.0* %this1 to i8*
  call void @llvm.memcpy.p0i8.p0i8.i64(i8* %1, i8* %2, i64 128, i32 8, i1 false)
  %call = invoke dereferenceable(128) %class.ap_private.0* @_ZN10ap_privateILi1024ELb0ELb0EEppEv(%class.ap_private.0* %this1)
          to label %invoke.cont unwind label %lpad

invoke.cont:                                      ; preds = %entry
  store i1 true, i1* %nrvo
  store i32 1, i32* %cleanup.dest.slot
  %nrvo.val = load i1* %nrvo
  br i1 %nrvo.val, label %nrvo.skipdtor, label %nrvo.unused

lpad:                                             ; preds = %entry
  %3 = landingpad { i8*, i32 } personality i8* bitcast (i32 (...)* @__gxx_personality_v0 to i8*)
          cleanup
  %4 = extractvalue { i8*, i32 } %3, 0
  store i8* %4, i8** %exn.slot
  %5 = extractvalue { i8*, i32 } %3, 1
  store i32 %5, i32* %ehselector.slot
  call void @_ZN10ap_privateILi1024ELb0ELb0EED2Ev(%class.ap_private.0* %agg.result) #2
  br label %eh.resume

nrvo.unused:                                      ; preds = %invoke.cont
  call void @_ZN10ap_privateILi1024ELb0ELb0EED2Ev(%class.ap_private.0* %agg.result) #2
  br label %nrvo.skipdtor

nrvo.skipdtor:                                    ; preds = %nrvo.unused, %invoke.cont
  ret void

eh.resume:                                        ; preds = %lpad
  %exn = load i8** %exn.slot
  %sel = load i32* %ehselector.slot
  %lpad.val = insertvalue { i8*, i32 } undef, i8* %exn, 0
  %lpad.val2 = insertvalue { i8*, i32 } %lpad.val, i32 %sel, 1
  resume { i8*, i32 } %lpad.val2
}

; Function Attrs: inlinehint nounwind uwtable
define linkonce_odr void @_ZN10ap_privateILi1024ELb0ELb0EED2Ev(%class.ap_private.0* %this) unnamed_addr #5 align 2 {
entry:
  %this.addr = alloca %class.ap_private.0*, align 8
  store %class.ap_private.0* %this, %class.ap_private.0** %this.addr, align 8
  %this1 = load %class.ap_private.0** %this.addr
  invoke void @_ZN10ap_privateILi1024ELb0ELb0EE12check_canaryEv(%class.ap_private.0* %this1)
          to label %invoke.cont unwind label %terminate.lpad

invoke.cont:                                      ; preds = %entry
  ret void

terminate.lpad:                                   ; preds = %entry
  %0 = landingpad { i8*, i32 } personality i8* bitcast (i32 (...)* @__gxx_personality_v0 to i8*)
          catch i8* null
  %1 = extractvalue { i8*, i32 } %0, 0
  call void @__clang_call_terminate(i8* %1) #12
  unreachable
}

; Function Attrs: inlinehint nounwind uwtable
define linkonce_odr void @_ZN10ap_privateILi1024ELb0ELb0EE21clearUnusedBitsToZeroEv(%class.ap_private.0* %this) #5 align 2 {
entry:
  %this.addr = alloca %class.ap_private.0*, align 8
  store %class.ap_private.0* %this, %class.ap_private.0** %this.addr, align 8
  %this1 = load %class.ap_private.0** %this.addr
  %pVal = getelementptr inbounds %class.ap_private.0* %this1, i32 0, i32 0
  %arrayidx = getelementptr inbounds [16 x i64]* %pVal, i32 0, i64 15
  %0 = load i64* %arrayidx, align 8
  store i64 %0, i64* %arrayidx, align 8
  ret void
}

declare dereferenceable(32) %"class.std::__cxx11::basic_string"* @_ZNSt7__cxx1112basic_stringIcSt11char_traitsIcESaIcEEpLEPKc(%"class.std::__cxx11::basic_string"*, i8*) #0

; Function Attrs: inlinehint nounwind uwtable
define linkonce_odr void @_ZN10ap_privateILi1024ELb0ELb0EEC2Eib(%class.ap_private.0* %this, i32 %val, i1 zeroext %isSigned) unnamed_addr #5 align 2 {
entry:
  %this.addr = alloca %class.ap_private.0*, align 8
  %val.addr = alloca i32, align 4
  %isSigned.addr = alloca i8, align 1
  store %class.ap_private.0* %this, %class.ap_private.0** %this.addr, align 8
  store i32 %val, i32* %val.addr, align 4
  %frombool = zext i1 %isSigned to i8
  store i8 %frombool, i8* %isSigned.addr, align 1
  %this1 = load %class.ap_private.0** %this.addr
  call void @_ZN10ap_privateILi1024ELb0ELb0EE10set_canaryEv(%class.ap_private.0* %this1)
  %0 = load i32* %val.addr, align 4
  %conv = sext i32 %0 to i64
  %pVal = getelementptr inbounds %class.ap_private.0* %this1, i32 0, i32 0
  %arrayidx = getelementptr inbounds [16 x i64]* %pVal, i32 0, i64 0
  store i64 %conv, i64* %arrayidx, align 8
  %1 = load i8* %isSigned.addr, align 1
  %tobool = trunc i8 %1 to i1
  br i1 %tobool, label %land.lhs.true, label %if.else

land.lhs.true:                                    ; preds = %entry
  %pVal2 = getelementptr inbounds %class.ap_private.0* %this1, i32 0, i32 0
  %arrayidx3 = getelementptr inbounds [16 x i64]* %pVal2, i32 0, i64 0
  %2 = load i64* %arrayidx3, align 8
  %cmp = icmp slt i64 %2, 0
  br i1 %cmp, label %if.then, label %if.else

if.then:                                          ; preds = %land.lhs.true
  %pVal4 = getelementptr inbounds %class.ap_private.0* %this1, i32 0, i32 0
  %arraydecay = getelementptr inbounds [16 x i64]* %pVal4, i32 0, i32 0
  %add.ptr = getelementptr inbounds i64* %arraydecay, i64 1
  %3 = bitcast i64* %add.ptr to i8*
  call void @llvm.memset.p0i8.i64(i8* %3, i8 -1, i64 120, i32 8, i1 false)
  br label %if.end

if.else:                                          ; preds = %land.lhs.true, %entry
  %pVal5 = getelementptr inbounds %class.ap_private.0* %this1, i32 0, i32 0
  %arraydecay6 = getelementptr inbounds [16 x i64]* %pVal5, i32 0, i32 0
  %add.ptr7 = getelementptr inbounds i64* %arraydecay6, i64 1
  %4 = bitcast i64* %add.ptr7 to i8*
  call void @llvm.memset.p0i8.i64(i8* %4, i8 0, i64 120, i32 8, i1 false)
  br label %if.end

if.end:                                           ; preds = %if.else, %if.then
  call void @_ZN10ap_privateILi1024ELb0ELb0EE15clearUnusedBitsEv(%class.ap_private.0* %this1)
  call void @_ZN10ap_privateILi1024ELb0ELb0EE12check_canaryEv(%class.ap_private.0* %this1)
  ret void
}

; Function Attrs: inlinehint uwtable
define linkonce_odr zeroext i1 @_ZNK10ap_privateILi1024ELb0ELb0EE2neILb0EEEbRKS_ILi1024EXT_ELb0EE(%class.ap_private.0* %this, %class.ap_private.0* dereferenceable(128) %RHS) #4 align 2 {
entry:
  %this.addr = alloca %class.ap_private.0*, align 8
  %RHS.addr = alloca %class.ap_private.0*, align 8
  store %class.ap_private.0* %this, %class.ap_private.0** %this.addr, align 8
  store %class.ap_private.0* %RHS, %class.ap_private.0** %RHS.addr, align 8
  %this1 = load %class.ap_private.0** %this.addr
  %0 = load %class.ap_private.0** %RHS.addr, align 8
  %call = call zeroext i1 @_ZNK10ap_privateILi1024ELb0ELb0EEeqERKS0_(%class.ap_private.0* %this1, %class.ap_private.0* dereferenceable(128) %0)
  %lnot = xor i1 %call, true
  ret i1 %lnot
}

; Function Attrs: inlinehint nounwind uwtable
define linkonce_odr dereferenceable(8) i64* @_ZN10ap_privateILi1024ELb0ELb0EE7get_VALEv(%class.ap_private.0* %this) #5 align 2 {
entry:
  %this.addr = alloca %class.ap_private.0*, align 8
  store %class.ap_private.0* %this, %class.ap_private.0** %this.addr, align 8
  %this1 = load %class.ap_private.0** %this.addr
  %pVal = getelementptr inbounds %class.ap_private.0* %this1, i32 0, i32 0
  %arrayidx = getelementptr inbounds [16 x i64]* %pVal, i32 0, i64 0
  ret i64* %arrayidx
}

declare dereferenceable(32) %"class.std::__cxx11::basic_string"* @_ZNSt7__cxx1112basic_stringIcSt11char_traitsIcESaIcEE6insertEmPKc(%"class.std::__cxx11::basic_string"*, i64, i8*) #0

; Function Attrs: inlinehint uwtable
define linkonce_odr dereferenceable(128) %class.ap_private.0* @_ZN10ap_privateILi1024ELb0ELb0EEaSERKS0_(%class.ap_private.0* %this, %class.ap_private.0* dereferenceable(128) %RHS) #4 align 2 {
entry:
  %this.addr = alloca %class.ap_private.0*, align 8
  %RHS.addr = alloca %class.ap_private.0*, align 8
  store %class.ap_private.0* %this, %class.ap_private.0** %this.addr, align 8
  store %class.ap_private.0* %RHS, %class.ap_private.0** %RHS.addr, align 8
  %this1 = load %class.ap_private.0** %this.addr
  %0 = load %class.ap_private.0** %RHS.addr, align 8
  %cmp = icmp ne %class.ap_private.0* %this1, %0
  br i1 %cmp, label %if.then, label %if.end

if.then:                                          ; preds = %entry
  %pVal = getelementptr inbounds %class.ap_private.0* %this1, i32 0, i32 0
  %1 = bitcast [16 x i64]* %pVal to i8*
  %2 = load %class.ap_private.0** %RHS.addr, align 8
  %call = call i64* @_ZNK10ap_privateILi1024ELb0ELb0EE8get_pValEv(%class.ap_private.0* %2)
  %3 = bitcast i64* %call to i8*
  call void @llvm.memcpy.p0i8.p0i8.i64(i8* %1, i8* %3, i64 128, i32 8, i1 false)
  br label %if.end

if.end:                                           ; preds = %if.then, %entry
  ret %class.ap_private.0* %this1
}

; Function Attrs: inlinehint uwtable
define linkonce_odr void @_ZNK10ap_privateILi1024ELb0ELb0EE4lshrEj(%class.ap_private.0* noalias sret %agg.result, %class.ap_private.0* %this, i32 %shiftAmt) #4 align 2 {
entry:
  %this.addr = alloca %class.ap_private.0*, align 8
  %shiftAmt.addr = alloca i32, align 4
  %Retval = alloca %class.ap_private.0, align 8
  %val = alloca i64*, align 8
  %exn.slot = alloca i8*
  %ehselector.slot = alloca i32
  %carry = alloca i64, align 8
  %i = alloca i32, align 4
  %cleanup.dest.slot = alloca i32
  %wordShift = alloca i32, align 4
  %offset = alloca i32, align 4
  %i18 = alloca i32, align 4
  %i30 = alloca i32, align 4
  %breakWord = alloca i32, align 4
  %i44 = alloca i32, align 4
  %i76 = alloca i32, align 4
  store %class.ap_private.0* %this, %class.ap_private.0** %this.addr, align 8
  store i32 %shiftAmt, i32* %shiftAmt.addr, align 4
  %this1 = load %class.ap_private.0** %this.addr
  %0 = load i32* %shiftAmt.addr, align 4
  %cmp = icmp eq i32 %0, 1024
  br i1 %cmp, label %if.then, label %if.end

if.then:                                          ; preds = %entry
  call void @_ZN10ap_privateILi1024ELb0ELb0EEC2Eib(%class.ap_private.0* %agg.result, i32 0, i1 zeroext true)
  br label %return

if.end:                                           ; preds = %entry
  %1 = load i32* %shiftAmt.addr, align 4
  %cmp2 = icmp eq i32 %1, 0
  br i1 %cmp2, label %if.then3, label %if.end4

if.then3:                                         ; preds = %if.end
  %2 = bitcast %class.ap_private.0* %agg.result to i8*
  %3 = bitcast %class.ap_private.0* %this1 to i8*
  call void @llvm.memcpy.p0i8.p0i8.i64(i8* %2, i8* %3, i64 128, i32 8, i1 false)
  br label %return

if.end4:                                          ; preds = %if.end
  call void @_ZN10ap_privateILi1024ELb0ELb0EEC2Eib(%class.ap_private.0* %Retval, i32 0, i1 zeroext true)
  %call = invoke i64* @_ZN10ap_privateILi1024ELb0ELb0EE8get_pValEv(%class.ap_private.0* %Retval)
          to label %invoke.cont unwind label %lpad

invoke.cont:                                      ; preds = %if.end4
  store i64* %call, i64** %val, align 8
  %4 = load i32* %shiftAmt.addr, align 4
  %cmp5 = icmp ult i32 %4, 64
  br i1 %cmp5, label %if.then6, label %if.end15

if.then6:                                         ; preds = %invoke.cont
  store i64 0, i64* %carry, align 8
  store i32 15, i32* %i, align 4
  br label %for.cond

for.cond:                                         ; preds = %for.inc, %if.then6
  %5 = load i32* %i, align 4
  %cmp7 = icmp sge i32 %5, 0
  br i1 %cmp7, label %for.body, label %for.end

for.body:                                         ; preds = %for.cond
  %6 = load i32* %i, align 4
  %idxprom = sext i32 %6 to i64
  %pVal = getelementptr inbounds %class.ap_private.0* %this1, i32 0, i32 0
  %arrayidx = getelementptr inbounds [16 x i64]* %pVal, i32 0, i64 %idxprom
  %7 = load i64* %arrayidx, align 8
  %8 = load i32* %shiftAmt.addr, align 4
  %sh_prom = zext i32 %8 to i64
  %shr = lshr i64 %7, %sh_prom
  %9 = load i64* %carry, align 8
  %or = or i64 %shr, %9
  %10 = load i32* %i, align 4
  %idxprom8 = sext i32 %10 to i64
  %11 = load i64** %val, align 8
  %arrayidx9 = getelementptr inbounds i64* %11, i64 %idxprom8
  store i64 %or, i64* %arrayidx9, align 8
  %12 = load i32* %i, align 4
  %idxprom10 = sext i32 %12 to i64
  %pVal11 = getelementptr inbounds %class.ap_private.0* %this1, i32 0, i32 0
  %arrayidx12 = getelementptr inbounds [16 x i64]* %pVal11, i32 0, i64 %idxprom10
  %13 = load i64* %arrayidx12, align 8
  %14 = load i32* %shiftAmt.addr, align 4
  %sub = sub i32 64, %14
  %sh_prom13 = zext i32 %sub to i64
  %shl = shl i64 %13, %sh_prom13
  store i64 %shl, i64* %carry, align 8
  br label %for.inc

for.inc:                                          ; preds = %for.body
  %15 = load i32* %i, align 4
  %dec = add nsw i32 %15, -1
  store i32 %dec, i32* %i, align 4
  br label %for.cond

lpad:                                             ; preds = %for.end85, %for.end39, %for.end, %if.end4
  %16 = landingpad { i8*, i32 } personality i8* bitcast (i32 (...)* @__gxx_personality_v0 to i8*)
          cleanup
  %17 = extractvalue { i8*, i32 } %16, 0
  store i8* %17, i8** %exn.slot
  %18 = extractvalue { i8*, i32 } %16, 1
  store i32 %18, i32* %ehselector.slot
  call void @_ZN10ap_privateILi1024ELb0ELb0EED2Ev(%class.ap_private.0* %Retval) #2
  br label %eh.resume

for.end:                                          ; preds = %for.cond
  invoke void @_ZN10ap_privateILi1024ELb0ELb0EE15clearUnusedBitsEv(%class.ap_private.0* %Retval)
          to label %invoke.cont14 unwind label %lpad

invoke.cont14:                                    ; preds = %for.end
  %19 = bitcast %class.ap_private.0* %agg.result to i8*
  %20 = bitcast %class.ap_private.0* %Retval to i8*
  call void @llvm.memcpy.p0i8.p0i8.i64(i8* %19, i8* %20, i64 128, i32 8, i1 false)
  store i32 1, i32* %cleanup.dest.slot
  br label %cleanup

if.end15:                                         ; preds = %invoke.cont
  %21 = load i32* %shiftAmt.addr, align 4
  %rem = urem i32 %21, 64
  store i32 %rem, i32* %wordShift, align 4
  %22 = load i32* %shiftAmt.addr, align 4
  %div = udiv i32 %22, 64
  store i32 %div, i32* %offset, align 4
  %23 = load i32* %wordShift, align 4
  %cmp16 = icmp eq i32 %23, 0
  br i1 %cmp16, label %if.then17, label %if.end41

if.then17:                                        ; preds = %if.end15
  store i32 0, i32* %i18, align 4
  br label %for.cond19

for.cond19:                                       ; preds = %for.inc28, %if.then17
  %24 = load i32* %i18, align 4
  %25 = load i32* %offset, align 4
  %sub20 = sub i32 16, %25
  %cmp21 = icmp ult i32 %24, %sub20
  br i1 %cmp21, label %for.body22, label %for.end29

for.body22:                                       ; preds = %for.cond19
  %26 = load i32* %i18, align 4
  %27 = load i32* %offset, align 4
  %add = add i32 %26, %27
  %idxprom23 = zext i32 %add to i64
  %pVal24 = getelementptr inbounds %class.ap_private.0* %this1, i32 0, i32 0
  %arrayidx25 = getelementptr inbounds [16 x i64]* %pVal24, i32 0, i64 %idxprom23
  %28 = load i64* %arrayidx25, align 8
  %29 = load i32* %i18, align 4
  %idxprom26 = zext i32 %29 to i64
  %30 = load i64** %val, align 8
  %arrayidx27 = getelementptr inbounds i64* %30, i64 %idxprom26
  store i64 %28, i64* %arrayidx27, align 8
  br label %for.inc28

for.inc28:                                        ; preds = %for.body22
  %31 = load i32* %i18, align 4
  %inc = add i32 %31, 1
  store i32 %inc, i32* %i18, align 4
  br label %for.cond19

for.end29:                                        ; preds = %for.cond19
  %32 = load i32* %offset, align 4
  %sub31 = sub i32 16, %32
  store i32 %sub31, i32* %i30, align 4
  br label %for.cond32

for.cond32:                                       ; preds = %for.inc37, %for.end29
  %33 = load i32* %i30, align 4
  %cmp33 = icmp ult i32 %33, 16
  br i1 %cmp33, label %for.body34, label %for.end39

for.body34:                                       ; preds = %for.cond32
  %34 = load i32* %i30, align 4
  %idxprom35 = zext i32 %34 to i64
  %35 = load i64** %val, align 8
  %arrayidx36 = getelementptr inbounds i64* %35, i64 %idxprom35
  store i64 0, i64* %arrayidx36, align 8
  br label %for.inc37

for.inc37:                                        ; preds = %for.body34
  %36 = load i32* %i30, align 4
  %inc38 = add i32 %36, 1
  store i32 %inc38, i32* %i30, align 4
  br label %for.cond32

for.end39:                                        ; preds = %for.cond32
  invoke void @_ZN10ap_privateILi1024ELb0ELb0EE15clearUnusedBitsEv(%class.ap_private.0* %Retval)
          to label %invoke.cont40 unwind label %lpad

invoke.cont40:                                    ; preds = %for.end39
  %37 = bitcast %class.ap_private.0* %agg.result to i8*
  %38 = bitcast %class.ap_private.0* %Retval to i8*
  call void @llvm.memcpy.p0i8.p0i8.i64(i8* %37, i8* %38, i64 128, i32 8, i1 false)
  store i32 1, i32* %cleanup.dest.slot
  br label %cleanup

if.end41:                                         ; preds = %if.end15
  %39 = load i32* %offset, align 4
  %sub42 = sub i32 16, %39
  %sub43 = sub i32 %sub42, 1
  store i32 %sub43, i32* %breakWord, align 4
  store i32 0, i32* %i44, align 4
  br label %for.cond45

for.cond45:                                       ; preds = %for.inc65, %if.end41
  %40 = load i32* %i44, align 4
  %41 = load i32* %breakWord, align 4
  %cmp46 = icmp ult i32 %40, %41
  br i1 %cmp46, label %for.body47, label %for.end67

for.body47:                                       ; preds = %for.cond45
  %42 = load i32* %i44, align 4
  %43 = load i32* %offset, align 4
  %add48 = add i32 %42, %43
  %idxprom49 = zext i32 %add48 to i64
  %pVal50 = getelementptr inbounds %class.ap_private.0* %this1, i32 0, i32 0
  %arrayidx51 = getelementptr inbounds [16 x i64]* %pVal50, i32 0, i64 %idxprom49
  %44 = load i64* %arrayidx51, align 8
  %45 = load i32* %wordShift, align 4
  %sh_prom52 = zext i32 %45 to i64
  %shr53 = lshr i64 %44, %sh_prom52
  %46 = load i32* %i44, align 4
  %47 = load i32* %offset, align 4
  %add54 = add i32 %46, %47
  %add55 = add i32 %add54, 1
  %idxprom56 = zext i32 %add55 to i64
  %pVal57 = getelementptr inbounds %class.ap_private.0* %this1, i32 0, i32 0
  %arrayidx58 = getelementptr inbounds [16 x i64]* %pVal57, i32 0, i64 %idxprom56
  %48 = load i64* %arrayidx58, align 8
  %49 = load i32* %wordShift, align 4
  %sub59 = sub i32 64, %49
  %sh_prom60 = zext i32 %sub59 to i64
  %shl61 = shl i64 %48, %sh_prom60
  %or62 = or i64 %shr53, %shl61
  %50 = load i32* %i44, align 4
  %idxprom63 = zext i32 %50 to i64
  %51 = load i64** %val, align 8
  %arrayidx64 = getelementptr inbounds i64* %51, i64 %idxprom63
  store i64 %or62, i64* %arrayidx64, align 8
  br label %for.inc65

for.inc65:                                        ; preds = %for.body47
  %52 = load i32* %i44, align 4
  %inc66 = add i32 %52, 1
  store i32 %inc66, i32* %i44, align 4
  br label %for.cond45

for.end67:                                        ; preds = %for.cond45
  %53 = load i32* %breakWord, align 4
  %54 = load i32* %offset, align 4
  %add68 = add i32 %53, %54
  %idxprom69 = zext i32 %add68 to i64
  %pVal70 = getelementptr inbounds %class.ap_private.0* %this1, i32 0, i32 0
  %arrayidx71 = getelementptr inbounds [16 x i64]* %pVal70, i32 0, i64 %idxprom69
  %55 = load i64* %arrayidx71, align 8
  %56 = load i32* %wordShift, align 4
  %sh_prom72 = zext i32 %56 to i64
  %shr73 = lshr i64 %55, %sh_prom72
  %57 = load i32* %breakWord, align 4
  %idxprom74 = zext i32 %57 to i64
  %58 = load i64** %val, align 8
  %arrayidx75 = getelementptr inbounds i64* %58, i64 %idxprom74
  store i64 %shr73, i64* %arrayidx75, align 8
  %59 = load i32* %breakWord, align 4
  %add77 = add i32 %59, 1
  store i32 %add77, i32* %i76, align 4
  br label %for.cond78

for.cond78:                                       ; preds = %for.inc83, %for.end67
  %60 = load i32* %i76, align 4
  %cmp79 = icmp slt i32 %60, 16
  br i1 %cmp79, label %for.body80, label %for.end85

for.body80:                                       ; preds = %for.cond78
  %61 = load i32* %i76, align 4
  %idxprom81 = sext i32 %61 to i64
  %62 = load i64** %val, align 8
  %arrayidx82 = getelementptr inbounds i64* %62, i64 %idxprom81
  store i64 0, i64* %arrayidx82, align 8
  br label %for.inc83

for.inc83:                                        ; preds = %for.body80
  %63 = load i32* %i76, align 4
  %inc84 = add nsw i32 %63, 1
  store i32 %inc84, i32* %i76, align 4
  br label %for.cond78

for.end85:                                        ; preds = %for.cond78
  invoke void @_ZN10ap_privateILi1024ELb0ELb0EE15clearUnusedBitsEv(%class.ap_private.0* %Retval)
          to label %invoke.cont86 unwind label %lpad

invoke.cont86:                                    ; preds = %for.end85
  %64 = bitcast %class.ap_private.0* %agg.result to i8*
  %65 = bitcast %class.ap_private.0* %Retval to i8*
  call void @llvm.memcpy.p0i8.p0i8.i64(i8* %64, i8* %65, i64 128, i32 8, i1 false)
  store i32 1, i32* %cleanup.dest.slot
  br label %cleanup

cleanup:                                          ; preds = %invoke.cont86, %invoke.cont40, %invoke.cont14
  call void @_ZN10ap_privateILi1024ELb0ELb0EED2Ev(%class.ap_private.0* %Retval) #2
  br label %return

return:                                           ; preds = %cleanup, %if.then3, %if.then
  ret void

eh.resume:                                        ; preds = %lpad
  %exn = load i8** %exn.slot
  %sel = load i32* %ehselector.slot
  %lpad.val = insertvalue { i8*, i32 } undef, i8* %exn, 0
  %lpad.val87 = insertvalue { i8*, i32 } %lpad.val, i32 %sel, 1
  resume { i8*, i32 } %lpad.val87
}

; Function Attrs: inlinehint uwtable
define linkonce_odr void @_ZN10ap_privateILi1024ELb0ELb0EEC2Ehb(%class.ap_private.0* %this, i8 zeroext %val, i1 zeroext %isSigned) unnamed_addr #4 align 2 {
entry:
  %this.addr = alloca %class.ap_private.0*, align 8
  %val.addr = alloca i8, align 1
  %isSigned.addr = alloca i8, align 1
  store %class.ap_private.0* %this, %class.ap_private.0** %this.addr, align 8
  store i8 %val, i8* %val.addr, align 1
  %frombool = zext i1 %isSigned to i8
  store i8 %frombool, i8* %isSigned.addr, align 1
  %this1 = load %class.ap_private.0** %this.addr
  call void @_ZN10ap_privateILi1024ELb0ELb0EE10set_canaryEv(%class.ap_private.0* %this1)
  %0 = load i8* %val.addr, align 1
  %conv = zext i8 %0 to i64
  %pVal = getelementptr inbounds %class.ap_private.0* %this1, i32 0, i32 0
  %arrayidx = getelementptr inbounds [16 x i64]* %pVal, i32 0, i64 0
  store i64 %conv, i64* %arrayidx, align 8
  %1 = load i8* %isSigned.addr, align 1
  %tobool = trunc i8 %1 to i1
  br i1 %tobool, label %land.lhs.true, label %if.else

land.lhs.true:                                    ; preds = %entry
  %pVal2 = getelementptr inbounds %class.ap_private.0* %this1, i32 0, i32 0
  %arrayidx3 = getelementptr inbounds [16 x i64]* %pVal2, i32 0, i64 0
  %2 = load i64* %arrayidx3, align 8
  %cmp = icmp slt i64 %2, 0
  br i1 %cmp, label %if.then, label %if.else

if.then:                                          ; preds = %land.lhs.true
  %pVal4 = getelementptr inbounds %class.ap_private.0* %this1, i32 0, i32 0
  %arraydecay = getelementptr inbounds [16 x i64]* %pVal4, i32 0, i32 0
  %add.ptr = getelementptr inbounds i64* %arraydecay, i64 1
  %3 = bitcast i64* %add.ptr to i8*
  call void @llvm.memset.p0i8.i64(i8* %3, i8 -1, i64 120, i32 8, i1 false)
  br label %if.end

if.else:                                          ; preds = %land.lhs.true, %entry
  %pVal5 = getelementptr inbounds %class.ap_private.0* %this1, i32 0, i32 0
  %arraydecay6 = getelementptr inbounds [16 x i64]* %pVal5, i32 0, i32 0
  %add.ptr7 = getelementptr inbounds i64* %arraydecay6, i64 1
  %4 = bitcast i64* %add.ptr7 to i8*
  call void @llvm.memset.p0i8.i64(i8* %4, i8 0, i64 120, i32 8, i1 false)
  br label %if.end

if.end:                                           ; preds = %if.else, %if.then
  call void @_ZN10ap_privateILi1024ELb0ELb0EE15clearUnusedBitsEv(%class.ap_private.0* %this1)
  call void @_ZN10ap_privateILi1024ELb0ELb0EE12check_canaryEv(%class.ap_private.0* %this1)
  ret void
}

; Function Attrs: inlinehint uwtable
define linkonce_odr zeroext i1 @_ZNK10ap_privateILi1024ELb0ELb0EEeqERKS0_(%class.ap_private.0* %this, %class.ap_private.0* dereferenceable(128) %RHS) #4 align 2 {
entry:
  %retval = alloca i1, align 1
  %this.addr = alloca %class.ap_private.0*, align 8
  %RHS.addr = alloca %class.ap_private.0*, align 8
  %n1 = alloca i32, align 4
  %n2 = alloca i32, align 4
  %i = alloca i32, align 4
  store %class.ap_private.0* %this, %class.ap_private.0** %this.addr, align 8
  store %class.ap_private.0* %RHS, %class.ap_private.0** %RHS.addr, align 8
  %this1 = load %class.ap_private.0** %this.addr
  %call = call i32 @_ZNK10ap_privateILi1024ELb0ELb0EE13getActiveBitsEv(%class.ap_private.0* %this1)
  store i32 %call, i32* %n1, align 4
  %0 = load %class.ap_private.0** %RHS.addr, align 8
  %call2 = call i32 @_ZNK10ap_privateILi1024ELb0ELb0EE13getActiveBitsEv(%class.ap_private.0* %0)
  store i32 %call2, i32* %n2, align 4
  %1 = load i32* %n1, align 4
  %2 = load i32* %n2, align 4
  %cmp = icmp ne i32 %1, %2
  br i1 %cmp, label %if.then, label %if.end

if.then:                                          ; preds = %entry
  store i1 false, i1* %retval
  br label %return

if.end:                                           ; preds = %entry
  %3 = load i32* %n1, align 4
  %cmp3 = icmp ule i32 %3, 64
  br i1 %cmp3, label %if.then4, label %if.end7

if.then4:                                         ; preds = %if.end
  %pVal = getelementptr inbounds %class.ap_private.0* %this1, i32 0, i32 0
  %arrayidx = getelementptr inbounds [16 x i64]* %pVal, i32 0, i64 0
  %4 = load i64* %arrayidx, align 8
  %5 = load %class.ap_private.0** %RHS.addr, align 8
  %call5 = call i64 @_ZNK10ap_privateILi1024ELb0ELb0EE8get_pValEi(%class.ap_private.0* %5, i32 0)
  %cmp6 = icmp eq i64 %4, %call5
  store i1 %cmp6, i1* %retval
  br label %return

if.end7:                                          ; preds = %if.end
  %6 = load i32* %n1, align 4
  %sub = sub i32 %6, 1
  %call8 = call i32 @_ZN10ap_privateILi1024ELb0ELb0EE9whichWordEj(i32 %sub)
  store i32 %call8, i32* %i, align 4
  br label %for.cond

for.cond:                                         ; preds = %for.inc, %if.end7
  %7 = load i32* %i, align 4
  %cmp9 = icmp sge i32 %7, 0
  br i1 %cmp9, label %for.body, label %for.end

for.body:                                         ; preds = %for.cond
  %8 = load i32* %i, align 4
  %idxprom = sext i32 %8 to i64
  %pVal10 = getelementptr inbounds %class.ap_private.0* %this1, i32 0, i32 0
  %arrayidx11 = getelementptr inbounds [16 x i64]* %pVal10, i32 0, i64 %idxprom
  %9 = load i64* %arrayidx11, align 8
  %10 = load %class.ap_private.0** %RHS.addr, align 8
  %11 = load i32* %i, align 4
  %call12 = call i64 @_ZNK10ap_privateILi1024ELb0ELb0EE8get_pValEi(%class.ap_private.0* %10, i32 %11)
  %cmp13 = icmp ne i64 %9, %call12
  br i1 %cmp13, label %if.then14, label %if.end15

if.then14:                                        ; preds = %for.body
  store i1 false, i1* %retval
  br label %return

if.end15:                                         ; preds = %for.body
  br label %for.inc

for.inc:                                          ; preds = %if.end15
  %12 = load i32* %i, align 4
  %dec = add nsw i32 %12, -1
  store i32 %dec, i32* %i, align 4
  br label %for.cond

for.end:                                          ; preds = %for.cond
  store i1 true, i1* %retval
  br label %return

return:                                           ; preds = %for.end, %if.then14, %if.then4, %if.then
  %13 = load i1* %retval
  ret i1 %13
}

; Function Attrs: uwtable
define linkonce_odr void @_ZN14ap_private_ops6divideILi1024ELb0EEEvRK10ap_privateIXT_EXT0_EXleT_Li64EEEjS4_jPS2_S5_(%class.ap_private.0* dereferenceable(128) %LHS, i32 %lhsWords, %class.ap_private.0* dereferenceable(128) %RHS, i32 %rhsWords, %class.ap_private.0* %Quotient, %class.ap_private.0* %Remainder) #3 {
entry:
  %LHS.addr = alloca %class.ap_private.0*, align 8
  %lhsWords.addr = alloca i32, align 4
  %RHS.addr = alloca %class.ap_private.0*, align 8
  %rhsWords.addr = alloca i32, align 4
  %Quotient.addr = alloca %class.ap_private.0*, align 8
  %Remainder.addr = alloca %class.ap_private.0*, align 8
  %mask = alloca i64, align 8
  %n = alloca i32, align 4
  %m = alloca i32, align 4
  %SPACE = alloca [128 x i32], align 16
  %__U = alloca i32*, align 8
  %__V = alloca i32*, align 8
  %__Q = alloca i32*, align 8
  %__R = alloca i32*, align 8
  %i = alloca i32, align 4
  %tmp = alloca i64, align 8
  %i57 = alloca i32, align 4
  %tmp62 = alloca i64, align 8
  %i87 = alloca i32, align 4
  %i100 = alloca i32, align 4
  %divisor = alloca i32, align 4
  %remainder = alloca i32, align 4
  %i125 = alloca i32, align 4
  %partial_dividend = alloca i64, align 8
  %tmp187 = alloca i64, align 8
  %i200 = alloca i32, align 4
  %tmp231 = alloca i64, align 8
  %i244 = alloca i32, align 4
  store %class.ap_private.0* %LHS, %class.ap_private.0** %LHS.addr, align 8
  store i32 %lhsWords, i32* %lhsWords.addr, align 4
  store %class.ap_private.0* %RHS, %class.ap_private.0** %RHS.addr, align 8
  store i32 %rhsWords, i32* %rhsWords.addr, align 4
  store %class.ap_private.0* %Quotient, %class.ap_private.0** %Quotient.addr, align 8
  store %class.ap_private.0* %Remainder, %class.ap_private.0** %Remainder.addr, align 8
  %0 = load i32* %lhsWords.addr, align 4
  %1 = load i32* %rhsWords.addr, align 4
  %cmp = icmp uge i32 %0, %1
  br i1 %cmp, label %cond.true, label %cond.false

cond.true:                                        ; preds = %entry
  br label %cond.end

cond.false:                                       ; preds = %entry
  call void @__assert_fail(i8* getelementptr inbounds ([44 x i8]* @.str26, i32 0, i32 0), i8* getelementptr inbounds ([61 x i8]* @.str2, i32 0, i32 0), i32 905, i8* getelementptr inbounds ([202 x i8]* @__PRETTY_FUNCTION__._ZN14ap_private_ops6divideILi1024ELb0EEEvRK10ap_privateIXT_EXT0_EXleT_Li64EEEjS4_jPS2_S5_, i32 0, i32 0)) #12
  unreachable
                                                  ; No predecessors!
  br label %cond.end

cond.end:                                         ; preds = %2, %cond.true
  store i64 4294967295, i64* %mask, align 8
  %3 = load i32* %rhsWords.addr, align 4
  %mul = mul i32 %3, 2
  store i32 %mul, i32* %n, align 4
  %4 = load i32* %lhsWords.addr, align 4
  %mul1 = mul i32 %4, 2
  %5 = load i32* %n, align 4
  %sub = sub i32 %mul1, %5
  store i32 %sub, i32* %m, align 4
  store i32* null, i32** %__U, align 8
  store i32* null, i32** %__V, align 8
  store i32* null, i32** %__Q, align 8
  store i32* null, i32** %__R, align 8
  %6 = load %class.ap_private.0** %Remainder.addr, align 8
  %tobool = icmp ne %class.ap_private.0* %6, null
  %cond = select i1 %tobool, i32 4, i32 3
  %7 = load i32* %n, align 4
  %mul2 = mul i32 %cond, %7
  %8 = load i32* %m, align 4
  %mul3 = mul i32 2, %8
  %add = add i32 %mul2, %mul3
  %add4 = add i32 %add, 1
  %cmp5 = icmp ule i32 %add4, 128
  br i1 %cmp5, label %if.then, label %if.else

if.then:                                          ; preds = %cond.end
  %arrayidx = getelementptr inbounds [128 x i32]* %SPACE, i32 0, i64 0
  store i32* %arrayidx, i32** %__U, align 8
  %9 = load i32* %m, align 4
  %10 = load i32* %n, align 4
  %add6 = add i32 %9, %10
  %add7 = add i32 %add6, 1
  %idxprom = zext i32 %add7 to i64
  %arrayidx8 = getelementptr inbounds [128 x i32]* %SPACE, i32 0, i64 %idxprom
  store i32* %arrayidx8, i32** %__V, align 8
  %11 = load i32* %m, align 4
  %12 = load i32* %n, align 4
  %add9 = add i32 %11, %12
  %add10 = add i32 %add9, 1
  %13 = load i32* %n, align 4
  %add11 = add i32 %add10, %13
  %idxprom12 = zext i32 %add11 to i64
  %arrayidx13 = getelementptr inbounds [128 x i32]* %SPACE, i32 0, i64 %idxprom12
  store i32* %arrayidx13, i32** %__Q, align 8
  %14 = load %class.ap_private.0** %Remainder.addr, align 8
  %tobool14 = icmp ne %class.ap_private.0* %14, null
  br i1 %tobool14, label %if.then15, label %if.end

if.then15:                                        ; preds = %if.then
  %15 = load i32* %m, align 4
  %16 = load i32* %n, align 4
  %add16 = add i32 %15, %16
  %add17 = add i32 %add16, 1
  %17 = load i32* %n, align 4
  %add18 = add i32 %add17, %17
  %18 = load i32* %m, align 4
  %19 = load i32* %n, align 4
  %add19 = add i32 %18, %19
  %add20 = add i32 %add18, %add19
  %idxprom21 = zext i32 %add20 to i64
  %arrayidx22 = getelementptr inbounds [128 x i32]* %SPACE, i32 0, i64 %idxprom21
  store i32* %arrayidx22, i32** %__R, align 8
  br label %if.end

if.end:                                           ; preds = %if.then15, %if.then
  br label %if.end35

if.else:                                          ; preds = %cond.end
  %20 = load i32* %m, align 4
  %21 = load i32* %n, align 4
  %add23 = add i32 %20, %21
  %add24 = add i32 %add23, 1
  %conv = zext i32 %add24 to i64
  %22 = call { i64, i1 } @llvm.umul.with.overflow.i64(i64 %conv, i64 4)
  %23 = extractvalue { i64, i1 } %22, 1
  %24 = extractvalue { i64, i1 } %22, 0
  %25 = select i1 %23, i64 -1, i64 %24
  %call = call noalias i8* @_Znam(i64 %25) #13
  %26 = bitcast i8* %call to i32*
  store i32* %26, i32** %__U, align 8
  %27 = load i32* %n, align 4
  %conv25 = zext i32 %27 to i64
  %28 = call { i64, i1 } @llvm.umul.with.overflow.i64(i64 %conv25, i64 4)
  %29 = extractvalue { i64, i1 } %28, 1
  %30 = extractvalue { i64, i1 } %28, 0
  %31 = select i1 %29, i64 -1, i64 %30
  %call26 = call noalias i8* @_Znam(i64 %31) #13
  %32 = bitcast i8* %call26 to i32*
  store i32* %32, i32** %__V, align 8
  %33 = load i32* %m, align 4
  %34 = load i32* %n, align 4
  %add27 = add i32 %33, %34
  %conv28 = zext i32 %add27 to i64
  %35 = call { i64, i1 } @llvm.umul.with.overflow.i64(i64 %conv28, i64 4)
  %36 = extractvalue { i64, i1 } %35, 1
  %37 = extractvalue { i64, i1 } %35, 0
  %38 = select i1 %36, i64 -1, i64 %37
  %call29 = call noalias i8* @_Znam(i64 %38) #13
  %39 = bitcast i8* %call29 to i32*
  store i32* %39, i32** %__Q, align 8
  %40 = load %class.ap_private.0** %Remainder.addr, align 8
  %tobool30 = icmp ne %class.ap_private.0* %40, null
  br i1 %tobool30, label %if.then31, label %if.end34

if.then31:                                        ; preds = %if.else
  %41 = load i32* %n, align 4
  %conv32 = zext i32 %41 to i64
  %42 = call { i64, i1 } @llvm.umul.with.overflow.i64(i64 %conv32, i64 4)
  %43 = extractvalue { i64, i1 } %42, 1
  %44 = extractvalue { i64, i1 } %42, 0
  %45 = select i1 %43, i64 -1, i64 %44
  %call33 = call noalias i8* @_Znam(i64 %45) #13
  %46 = bitcast i8* %call33 to i32*
  store i32* %46, i32** %__R, align 8
  br label %if.end34

if.end34:                                         ; preds = %if.then31, %if.else
  br label %if.end35

if.end35:                                         ; preds = %if.end34, %if.end
  %47 = load i32** %__U, align 8
  %48 = bitcast i32* %47 to i8*
  %49 = load i32* %m, align 4
  %50 = load i32* %n, align 4
  %add36 = add i32 %49, %50
  %add37 = add i32 %add36, 1
  %conv38 = zext i32 %add37 to i64
  %mul39 = mul i64 %conv38, 4
  call void @llvm.memset.p0i8.i64(i8* %48, i8 0, i64 %mul39, i32 4, i1 false)
  store i32 0, i32* %i, align 4
  br label %for.cond

for.cond:                                         ; preds = %for.inc, %if.end35
  %51 = load i32* %i, align 4
  %52 = load i32* %lhsWords.addr, align 4
  %cmp40 = icmp ult i32 %51, %52
  br i1 %cmp40, label %for.body, label %for.end

for.body:                                         ; preds = %for.cond
  %53 = load %class.ap_private.0** %LHS.addr, align 8
  %54 = load i32* %i, align 4
  %call41 = call i64 @_ZNK10ap_privateILi1024ELb0ELb0EE8get_pValEi(%class.ap_private.0* %53, i32 %54)
  store i64 %call41, i64* %tmp, align 8
  %55 = load i64* %tmp, align 8
  %56 = load i64* %mask, align 8
  %and = and i64 %55, %56
  %conv42 = trunc i64 %and to i32
  %57 = load i32* %i, align 4
  %mul43 = mul i32 %57, 2
  %idxprom44 = zext i32 %mul43 to i64
  %58 = load i32** %__U, align 8
  %arrayidx45 = getelementptr inbounds i32* %58, i64 %idxprom44
  store i32 %conv42, i32* %arrayidx45, align 4
  %59 = load i64* %tmp, align 8
  %shr = lshr i64 %59, 32
  %conv46 = trunc i64 %shr to i32
  %60 = load i32* %i, align 4
  %mul47 = mul i32 %60, 2
  %add48 = add i32 %mul47, 1
  %idxprom49 = zext i32 %add48 to i64
  %61 = load i32** %__U, align 8
  %arrayidx50 = getelementptr inbounds i32* %61, i64 %idxprom49
  store i32 %conv46, i32* %arrayidx50, align 4
  br label %for.inc

for.inc:                                          ; preds = %for.body
  %62 = load i32* %i, align 4
  %inc = add i32 %62, 1
  store i32 %inc, i32* %i, align 4
  br label %for.cond

for.end:                                          ; preds = %for.cond
  %63 = load i32* %m, align 4
  %64 = load i32* %n, align 4
  %add51 = add i32 %63, %64
  %idxprom52 = zext i32 %add51 to i64
  %65 = load i32** %__U, align 8
  %arrayidx53 = getelementptr inbounds i32* %65, i64 %idxprom52
  store i32 0, i32* %arrayidx53, align 4
  %66 = load i32** %__V, align 8
  %67 = bitcast i32* %66 to i8*
  %68 = load i32* %n, align 4
  %conv54 = zext i32 %68 to i64
  %mul55 = mul i64 %conv54, 4
  call void @llvm.memset.p0i8.i64(i8* %67, i8 0, i64 %mul55, i32 4, i1 false)
  store i32 0, i32* %i57, align 4
  br label %for.cond58

for.cond58:                                       ; preds = %for.inc75, %for.end
  %69 = load i32* %i57, align 4
  %70 = load i32* %rhsWords.addr, align 4
  %cmp59 = icmp ult i32 %69, %70
  br i1 %cmp59, label %for.body60, label %for.end77

for.body60:                                       ; preds = %for.cond58
  %71 = load %class.ap_private.0** %RHS.addr, align 8
  %72 = load i32* %i57, align 4
  %call63 = call i64 @_ZNK10ap_privateILi1024ELb0ELb0EE8get_pValEi(%class.ap_private.0* %71, i32 %72)
  store i64 %call63, i64* %tmp62, align 8
  %73 = load i64* %tmp62, align 8
  %74 = load i64* %mask, align 8
  %and64 = and i64 %73, %74
  %conv65 = trunc i64 %and64 to i32
  %75 = load i32* %i57, align 4
  %mul66 = mul i32 %75, 2
  %idxprom67 = zext i32 %mul66 to i64
  %76 = load i32** %__V, align 8
  %arrayidx68 = getelementptr inbounds i32* %76, i64 %idxprom67
  store i32 %conv65, i32* %arrayidx68, align 4
  %77 = load i64* %tmp62, align 8
  %shr69 = lshr i64 %77, 32
  %conv70 = trunc i64 %shr69 to i32
  %78 = load i32* %i57, align 4
  %mul71 = mul i32 %78, 2
  %add72 = add i32 %mul71, 1
  %idxprom73 = zext i32 %add72 to i64
  %79 = load i32** %__V, align 8
  %arrayidx74 = getelementptr inbounds i32* %79, i64 %idxprom73
  store i32 %conv70, i32* %arrayidx74, align 4
  br label %for.inc75

for.inc75:                                        ; preds = %for.body60
  %80 = load i32* %i57, align 4
  %inc76 = add i32 %80, 1
  store i32 %inc76, i32* %i57, align 4
  br label %for.cond58

for.end77:                                        ; preds = %for.cond58
  %81 = load i32** %__Q, align 8
  %82 = bitcast i32* %81 to i8*
  %83 = load i32* %m, align 4
  %84 = load i32* %n, align 4
  %add78 = add i32 %83, %84
  %conv79 = zext i32 %add78 to i64
  %mul80 = mul i64 %conv79, 4
  call void @llvm.memset.p0i8.i64(i8* %82, i8 0, i64 %mul80, i32 4, i1 false)
  %85 = load %class.ap_private.0** %Remainder.addr, align 8
  %tobool81 = icmp ne %class.ap_private.0* %85, null
  br i1 %tobool81, label %if.then82, label %if.end85

if.then82:                                        ; preds = %for.end77
  %86 = load i32** %__R, align 8
  %87 = bitcast i32* %86 to i8*
  %88 = load i32* %n, align 4
  %conv83 = zext i32 %88 to i64
  %mul84 = mul i64 %conv83, 4
  call void @llvm.memset.p0i8.i64(i8* %87, i8 0, i64 %mul84, i32 4, i1 false)
  br label %if.end85

if.end85:                                         ; preds = %if.then82, %for.end77
  %89 = load i32* %n, align 4
  store i32 %89, i32* %i87, align 4
  br label %for.cond88

for.cond88:                                       ; preds = %for.inc96, %if.end85
  %90 = load i32* %i87, align 4
  %cmp89 = icmp ugt i32 %90, 0
  br i1 %cmp89, label %land.rhs, label %land.end

land.rhs:                                         ; preds = %for.cond88
  %91 = load i32* %i87, align 4
  %sub90 = sub i32 %91, 1
  %idxprom91 = zext i32 %sub90 to i64
  %92 = load i32** %__V, align 8
  %arrayidx92 = getelementptr inbounds i32* %92, i64 %idxprom91
  %93 = load i32* %arrayidx92, align 4
  %cmp93 = icmp eq i32 %93, 0
  br label %land.end

land.end:                                         ; preds = %land.rhs, %for.cond88
  %94 = phi i1 [ false, %for.cond88 ], [ %cmp93, %land.rhs ]
  br i1 %94, label %for.body94, label %for.end98

for.body94:                                       ; preds = %land.end
  %95 = load i32* %n, align 4
  %dec = add i32 %95, -1
  store i32 %dec, i32* %n, align 4
  %96 = load i32* %m, align 4
  %inc95 = add i32 %96, 1
  store i32 %inc95, i32* %m, align 4
  br label %for.inc96

for.inc96:                                        ; preds = %for.body94
  %97 = load i32* %i87, align 4
  %dec97 = add i32 %97, -1
  store i32 %dec97, i32* %i87, align 4
  br label %for.cond88

for.end98:                                        ; preds = %land.end
  %98 = load i32* %m, align 4
  %99 = load i32* %n, align 4
  %add101 = add i32 %98, %99
  store i32 %add101, i32* %i100, align 4
  br label %for.cond102

for.cond102:                                      ; preds = %for.inc112, %for.end98
  %100 = load i32* %i100, align 4
  %cmp103 = icmp ugt i32 %100, 0
  br i1 %cmp103, label %land.rhs104, label %land.end109

land.rhs104:                                      ; preds = %for.cond102
  %101 = load i32* %i100, align 4
  %sub105 = sub i32 %101, 1
  %idxprom106 = zext i32 %sub105 to i64
  %102 = load i32** %__U, align 8
  %arrayidx107 = getelementptr inbounds i32* %102, i64 %idxprom106
  %103 = load i32* %arrayidx107, align 4
  %cmp108 = icmp eq i32 %103, 0
  br label %land.end109

land.end109:                                      ; preds = %land.rhs104, %for.cond102
  %104 = phi i1 [ false, %for.cond102 ], [ %cmp108, %land.rhs104 ]
  br i1 %104, label %for.body110, label %for.end114

for.body110:                                      ; preds = %land.end109
  %105 = load i32* %m, align 4
  %dec111 = add i32 %105, -1
  store i32 %dec111, i32* %m, align 4
  br label %for.inc112

for.inc112:                                       ; preds = %for.body110
  %106 = load i32* %i100, align 4
  %dec113 = add i32 %106, -1
  store i32 %dec113, i32* %i100, align 4
  br label %for.cond102

for.end114:                                       ; preds = %land.end109
  %107 = load i32* %n, align 4
  %cmp115 = icmp ne i32 %107, 0
  br i1 %cmp115, label %cond.true116, label %cond.false117

cond.true116:                                     ; preds = %for.end114
  br label %cond.end118

cond.false117:                                    ; preds = %for.end114
  call void @__assert_fail(i8* getelementptr inbounds ([28 x i8]* @.str27, i32 0, i32 0), i8* getelementptr inbounds ([61 x i8]* @.str2, i32 0, i32 0), i32 978, i8* getelementptr inbounds ([202 x i8]* @__PRETTY_FUNCTION__._ZN14ap_private_ops6divideILi1024ELb0EEEvRK10ap_privateIXT_EXT0_EXleT_Li64EEEjS4_jPS2_S5_, i32 0, i32 0)) #12
  unreachable
                                                  ; No predecessors!
  br label %cond.end118

cond.end118:                                      ; preds = %108, %cond.true116
  %109 = load i32* %n, align 4
  %cmp119 = icmp eq i32 %109, 1
  br i1 %cmp119, label %if.then120, label %if.else174

if.then120:                                       ; preds = %cond.end118
  %110 = load i32** %__V, align 8
  %arrayidx122 = getelementptr inbounds i32* %110, i64 0
  %111 = load i32* %arrayidx122, align 4
  store i32 %111, i32* %divisor, align 4
  store i32 0, i32* %remainder, align 4
  %112 = load i32* %m, align 4
  %113 = load i32* %n, align 4
  %add126 = add i32 %112, %113
  %sub127 = sub i32 %add126, 1
  store i32 %sub127, i32* %i125, align 4
  br label %for.cond128

for.cond128:                                      ; preds = %for.inc167, %if.then120
  %114 = load i32* %i125, align 4
  %cmp129 = icmp sge i32 %114, 0
  br i1 %cmp129, label %for.body130, label %for.end169

for.body130:                                      ; preds = %for.cond128
  %115 = load i32* %remainder, align 4
  %conv132 = zext i32 %115 to i64
  %shl = shl i64 %conv132, 32
  %116 = load i32* %i125, align 4
  %idxprom133 = sext i32 %116 to i64
  %117 = load i32** %__U, align 8
  %arrayidx134 = getelementptr inbounds i32* %117, i64 %idxprom133
  %118 = load i32* %arrayidx134, align 4
  %conv135 = zext i32 %118 to i64
  %or = or i64 %shl, %conv135
  store i64 %or, i64* %partial_dividend, align 8
  %119 = load i64* %partial_dividend, align 8
  %cmp136 = icmp eq i64 %119, 0
  br i1 %cmp136, label %if.then137, label %if.else140

if.then137:                                       ; preds = %for.body130
  %120 = load i32* %i125, align 4
  %idxprom138 = sext i32 %120 to i64
  %121 = load i32** %__Q, align 8
  %arrayidx139 = getelementptr inbounds i32* %121, i64 %idxprom138
  store i32 0, i32* %arrayidx139, align 4
  store i32 0, i32* %remainder, align 4
  br label %if.end166

if.else140:                                       ; preds = %for.body130
  %122 = load i64* %partial_dividend, align 8
  %123 = load i32* %divisor, align 4
  %conv141 = zext i32 %123 to i64
  %cmp142 = icmp ult i64 %122, %conv141
  br i1 %cmp142, label %if.then143, label %if.else147

if.then143:                                       ; preds = %if.else140
  %124 = load i32* %i125, align 4
  %idxprom144 = sext i32 %124 to i64
  %125 = load i32** %__Q, align 8
  %arrayidx145 = getelementptr inbounds i32* %125, i64 %idxprom144
  store i32 0, i32* %arrayidx145, align 4
  %126 = load i64* %partial_dividend, align 8
  %conv146 = trunc i64 %126 to i32
  store i32 %conv146, i32* %remainder, align 4
  br label %if.end165

if.else147:                                       ; preds = %if.else140
  %127 = load i64* %partial_dividend, align 8
  %128 = load i32* %divisor, align 4
  %conv148 = zext i32 %128 to i64
  %cmp149 = icmp eq i64 %127, %conv148
  br i1 %cmp149, label %if.then150, label %if.else153

if.then150:                                       ; preds = %if.else147
  %129 = load i32* %i125, align 4
  %idxprom151 = sext i32 %129 to i64
  %130 = load i32** %__Q, align 8
  %arrayidx152 = getelementptr inbounds i32* %130, i64 %idxprom151
  store i32 1, i32* %arrayidx152, align 4
  store i32 0, i32* %remainder, align 4
  br label %if.end164

if.else153:                                       ; preds = %if.else147
  %131 = load i64* %partial_dividend, align 8
  %132 = load i32* %divisor, align 4
  %conv154 = zext i32 %132 to i64
  %div = udiv i64 %131, %conv154
  %conv155 = trunc i64 %div to i32
  %133 = load i32* %i125, align 4
  %idxprom156 = sext i32 %133 to i64
  %134 = load i32** %__Q, align 8
  %arrayidx157 = getelementptr inbounds i32* %134, i64 %idxprom156
  store i32 %conv155, i32* %arrayidx157, align 4
  %135 = load i64* %partial_dividend, align 8
  %136 = load i32* %i125, align 4
  %idxprom158 = sext i32 %136 to i64
  %137 = load i32** %__Q, align 8
  %arrayidx159 = getelementptr inbounds i32* %137, i64 %idxprom158
  %138 = load i32* %arrayidx159, align 4
  %139 = load i32* %divisor, align 4
  %mul160 = mul i32 %138, %139
  %conv161 = zext i32 %mul160 to i64
  %sub162 = sub i64 %135, %conv161
  %conv163 = trunc i64 %sub162 to i32
  store i32 %conv163, i32* %remainder, align 4
  br label %if.end164

if.end164:                                        ; preds = %if.else153, %if.then150
  br label %if.end165

if.end165:                                        ; preds = %if.end164, %if.then143
  br label %if.end166

if.end166:                                        ; preds = %if.end165, %if.then137
  br label %for.inc167

for.inc167:                                       ; preds = %if.end166
  %140 = load i32* %i125, align 4
  %dec168 = add nsw i32 %140, -1
  store i32 %dec168, i32* %i125, align 4
  br label %for.cond128

for.end169:                                       ; preds = %for.cond128
  %141 = load i32** %__R, align 8
  %tobool170 = icmp ne i32* %141, null
  br i1 %tobool170, label %if.then171, label %if.end173

if.then171:                                       ; preds = %for.end169
  %142 = load i32* %remainder, align 4
  %143 = load i32** %__R, align 8
  %arrayidx172 = getelementptr inbounds i32* %143, i64 0
  store i32 %142, i32* %arrayidx172, align 4
  br label %if.end173

if.end173:                                        ; preds = %if.then171, %for.end169
  br label %if.end175

if.else174:                                       ; preds = %cond.end118
  %144 = load i32** %__U, align 8
  %145 = load i32** %__V, align 8
  %146 = load i32** %__Q, align 8
  %147 = load i32** %__R, align 8
  %148 = load i32* %m, align 4
  %149 = load i32* %n, align 4
  call void @_ZN14ap_private_opsL8KnuthDivEPjS0_S0_S0_jj(i32* %144, i32* %145, i32* %146, i32* %147, i32 %148, i32 %149)
  br label %if.end175

if.end175:                                        ; preds = %if.else174, %if.end173
  %150 = load %class.ap_private.0** %Quotient.addr, align 8
  %tobool176 = icmp ne %class.ap_private.0* %150, null
  br i1 %tobool176, label %if.then177, label %if.end219

if.then177:                                       ; preds = %if.end175
  %151 = load %class.ap_private.0** %Quotient.addr, align 8
  %152 = load %class.ap_private.0** %LHS.addr, align 8
  br i1 false, label %if.then178, label %if.else182

if.then178:                                       ; preds = %if.then177
  %153 = load %class.ap_private.0** %Quotient.addr, align 8
  %call179 = call zeroext i1 @_ZNK10ap_privateILi1024ELb0ELb0EE12isSingleWordEv(%class.ap_private.0* %153)
  br i1 %call179, label %if.then180, label %if.end181

if.then180:                                       ; preds = %if.then178
  %154 = load %class.ap_private.0** %Quotient.addr, align 8
  call void @_ZN10ap_privateILi1024ELb0ELb0EE7set_VALEm(%class.ap_private.0* %154, i64 0)
  br label %if.end181

if.end181:                                        ; preds = %if.then180, %if.then178
  br label %if.end183

if.else182:                                       ; preds = %if.then177
  %155 = load %class.ap_private.0** %Quotient.addr, align 8
  call void @_ZN10ap_privateILi1024ELb0ELb0EE5clearEv(%class.ap_private.0* %155)
  br label %if.end183

if.end183:                                        ; preds = %if.else182, %if.end181
  %156 = load i32* %lhsWords.addr, align 4
  %cmp184 = icmp eq i32 %156, 1
  br i1 %cmp184, label %if.then185, label %if.else194

if.then185:                                       ; preds = %if.end183
  %157 = load i32** %__Q, align 8
  %arrayidx188 = getelementptr inbounds i32* %157, i64 0
  %158 = load i32* %arrayidx188, align 4
  %conv189 = zext i32 %158 to i64
  %159 = load i32** %__Q, align 8
  %arrayidx190 = getelementptr inbounds i32* %159, i64 1
  %160 = load i32* %arrayidx190, align 4
  %conv191 = zext i32 %160 to i64
  %shl192 = shl i64 %conv191, 32
  %or193 = or i64 %conv189, %shl192
  store i64 %or193, i64* %tmp187, align 8
  %161 = load %class.ap_private.0** %Quotient.addr, align 8
  %162 = load i64* %tmp187, align 8
  call void @_ZN10ap_privateILi1024ELb0ELb0EE7set_VALEm(%class.ap_private.0* %161, i64 %162)
  br label %if.end218

if.else194:                                       ; preds = %if.end183
  %163 = load %class.ap_private.0** %Quotient.addr, align 8
  %call195 = call zeroext i1 @_ZNK10ap_privateILi1024ELb0ELb0EE12isSingleWordEv(%class.ap_private.0* %163)
  br i1 %call195, label %cond.false197, label %cond.true196

cond.true196:                                     ; preds = %if.else194
  br label %cond.end198

cond.false197:                                    ; preds = %if.else194
  call void @__assert_fail(i8* getelementptr inbounds ([68 x i8]* @.str28, i32 0, i32 0), i8* getelementptr inbounds ([61 x i8]* @.str2, i32 0, i32 0), i32 1022, i8* getelementptr inbounds ([202 x i8]* @__PRETTY_FUNCTION__._ZN14ap_private_ops6divideILi1024ELb0EEEvRK10ap_privateIXT_EXT0_EXleT_Li64EEEjS4_jPS2_S5_, i32 0, i32 0)) #12
  unreachable
                                                  ; No predecessors!
  br label %cond.end198

cond.end198:                                      ; preds = %164, %cond.true196
  store i32 0, i32* %i200, align 4
  br label %for.cond201

for.cond201:                                      ; preds = %for.inc215, %cond.end198
  %165 = load i32* %i200, align 4
  %166 = load i32* %lhsWords.addr, align 4
  %cmp202 = icmp ult i32 %165, %166
  br i1 %cmp202, label %for.body203, label %for.end217

for.body203:                                      ; preds = %for.cond201
  %167 = load %class.ap_private.0** %Quotient.addr, align 8
  %168 = load i32* %i200, align 4
  %169 = load i32* %i200, align 4
  %mul204 = mul i32 %169, 2
  %idxprom205 = zext i32 %mul204 to i64
  %170 = load i32** %__Q, align 8
  %arrayidx206 = getelementptr inbounds i32* %170, i64 %idxprom205
  %171 = load i32* %arrayidx206, align 4
  %conv207 = zext i32 %171 to i64
  %172 = load i32* %i200, align 4
  %mul208 = mul i32 %172, 2
  %add209 = add i32 %mul208, 1
  %idxprom210 = zext i32 %add209 to i64
  %173 = load i32** %__Q, align 8
  %arrayidx211 = getelementptr inbounds i32* %173, i64 %idxprom210
  %174 = load i32* %arrayidx211, align 4
  %conv212 = zext i32 %174 to i64
  %shl213 = shl i64 %conv212, 32
  %or214 = or i64 %conv207, %shl213
  call void @_ZN10ap_privateILi1024ELb0ELb0EE8set_pValEim(%class.ap_private.0* %167, i32 %168, i64 %or214)
  br label %for.inc215

for.inc215:                                       ; preds = %for.body203
  %175 = load i32* %i200, align 4
  %inc216 = add i32 %175, 1
  store i32 %inc216, i32* %i200, align 4
  br label %for.cond201

for.end217:                                       ; preds = %for.cond201
  br label %if.end218

if.end218:                                        ; preds = %for.end217, %if.then185
  %176 = load %class.ap_private.0** %Quotient.addr, align 8
  call void @_ZN10ap_privateILi1024ELb0ELb0EE15clearUnusedBitsEv(%class.ap_private.0* %176)
  br label %if.end219

if.end219:                                        ; preds = %if.end218, %if.end175
  %177 = load %class.ap_private.0** %Remainder.addr, align 8
  %tobool220 = icmp ne %class.ap_private.0* %177, null
  br i1 %tobool220, label %if.then221, label %if.end263

if.then221:                                       ; preds = %if.end219
  %178 = load %class.ap_private.0** %Remainder.addr, align 8
  %179 = load %class.ap_private.0** %RHS.addr, align 8
  br i1 false, label %if.then222, label %if.else226

if.then222:                                       ; preds = %if.then221
  %180 = load %class.ap_private.0** %Remainder.addr, align 8
  %call223 = call zeroext i1 @_ZNK10ap_privateILi1024ELb0ELb0EE12isSingleWordEv(%class.ap_private.0* %180)
  br i1 %call223, label %if.then224, label %if.end225

if.then224:                                       ; preds = %if.then222
  %181 = load %class.ap_private.0** %Remainder.addr, align 8
  call void @_ZN10ap_privateILi1024ELb0ELb0EE7set_VALEm(%class.ap_private.0* %181, i64 0)
  br label %if.end225

if.end225:                                        ; preds = %if.then224, %if.then222
  br label %if.end227

if.else226:                                       ; preds = %if.then221
  %182 = load %class.ap_private.0** %Remainder.addr, align 8
  call void @_ZN10ap_privateILi1024ELb0ELb0EE5clearEv(%class.ap_private.0* %182)
  br label %if.end227

if.end227:                                        ; preds = %if.else226, %if.end225
  %183 = load i32* %rhsWords.addr, align 4
  %cmp228 = icmp eq i32 %183, 1
  br i1 %cmp228, label %if.then229, label %if.else238

if.then229:                                       ; preds = %if.end227
  %184 = load i32** %__R, align 8
  %arrayidx232 = getelementptr inbounds i32* %184, i64 0
  %185 = load i32* %arrayidx232, align 4
  %conv233 = zext i32 %185 to i64
  %186 = load i32** %__R, align 8
  %arrayidx234 = getelementptr inbounds i32* %186, i64 1
  %187 = load i32* %arrayidx234, align 4
  %conv235 = zext i32 %187 to i64
  %shl236 = shl i64 %conv235, 32
  %or237 = or i64 %conv233, %shl236
  store i64 %or237, i64* %tmp231, align 8
  %188 = load %class.ap_private.0** %Remainder.addr, align 8
  %189 = load i64* %tmp231, align 8
  call void @_ZN10ap_privateILi1024ELb0ELb0EE7set_VALEm(%class.ap_private.0* %188, i64 %189)
  br label %if.end262

if.else238:                                       ; preds = %if.end227
  %190 = load %class.ap_private.0** %Remainder.addr, align 8
  %call239 = call zeroext i1 @_ZNK10ap_privateILi1024ELb0ELb0EE12isSingleWordEv(%class.ap_private.0* %190)
  br i1 %call239, label %cond.false241, label %cond.true240

cond.true240:                                     ; preds = %if.else238
  br label %cond.end242

cond.false241:                                    ; preds = %if.else238
  call void @__assert_fail(i8* getelementptr inbounds ([70 x i8]* @.str29, i32 0, i32 0), i8* getelementptr inbounds ([61 x i8]* @.str2, i32 0, i32 0), i32 1046, i8* getelementptr inbounds ([202 x i8]* @__PRETTY_FUNCTION__._ZN14ap_private_ops6divideILi1024ELb0EEEvRK10ap_privateIXT_EXT0_EXleT_Li64EEEjS4_jPS2_S5_, i32 0, i32 0)) #12
  unreachable
                                                  ; No predecessors!
  br label %cond.end242

cond.end242:                                      ; preds = %191, %cond.true240
  store i32 0, i32* %i244, align 4
  br label %for.cond245

for.cond245:                                      ; preds = %for.inc259, %cond.end242
  %192 = load i32* %i244, align 4
  %193 = load i32* %rhsWords.addr, align 4
  %cmp246 = icmp ult i32 %192, %193
  br i1 %cmp246, label %for.body247, label %for.end261

for.body247:                                      ; preds = %for.cond245
  %194 = load %class.ap_private.0** %Remainder.addr, align 8
  %195 = load i32* %i244, align 4
  %196 = load i32* %i244, align 4
  %mul248 = mul i32 %196, 2
  %idxprom249 = zext i32 %mul248 to i64
  %197 = load i32** %__R, align 8
  %arrayidx250 = getelementptr inbounds i32* %197, i64 %idxprom249
  %198 = load i32* %arrayidx250, align 4
  %conv251 = zext i32 %198 to i64
  %199 = load i32* %i244, align 4
  %mul252 = mul i32 %199, 2
  %add253 = add i32 %mul252, 1
  %idxprom254 = zext i32 %add253 to i64
  %200 = load i32** %__R, align 8
  %arrayidx255 = getelementptr inbounds i32* %200, i64 %idxprom254
  %201 = load i32* %arrayidx255, align 4
  %conv256 = zext i32 %201 to i64
  %shl257 = shl i64 %conv256, 32
  %or258 = or i64 %conv251, %shl257
  call void @_ZN10ap_privateILi1024ELb0ELb0EE8set_pValEim(%class.ap_private.0* %194, i32 %195, i64 %or258)
  br label %for.inc259

for.inc259:                                       ; preds = %for.body247
  %202 = load i32* %i244, align 4
  %inc260 = add i32 %202, 1
  store i32 %inc260, i32* %i244, align 4
  br label %for.cond245

for.end261:                                       ; preds = %for.cond245
  br label %if.end262

if.end262:                                        ; preds = %for.end261, %if.then229
  %203 = load %class.ap_private.0** %Remainder.addr, align 8
  call void @_ZN10ap_privateILi1024ELb0ELb0EE15clearUnusedBitsEv(%class.ap_private.0* %203)
  br label %if.end263

if.end263:                                        ; preds = %if.end262, %if.end219
  %204 = load i32** %__U, align 8
  %arrayidx264 = getelementptr inbounds [128 x i32]* %SPACE, i32 0, i64 0
  %cmp265 = icmp ne i32* %204, %arrayidx264
  br i1 %cmp265, label %if.then266, label %if.end276

if.then266:                                       ; preds = %if.end263
  %205 = load i32** %__U, align 8
  %isnull = icmp eq i32* %205, null
  br i1 %isnull, label %delete.end, label %delete.notnull

delete.notnull:                                   ; preds = %if.then266
  %206 = bitcast i32* %205 to i8*
  call void @_ZdaPv(i8* %206) #14
  br label %delete.end

delete.end:                                       ; preds = %delete.notnull, %if.then266
  %207 = load i32** %__V, align 8
  %isnull267 = icmp eq i32* %207, null
  br i1 %isnull267, label %delete.end269, label %delete.notnull268

delete.notnull268:                                ; preds = %delete.end
  %208 = bitcast i32* %207 to i8*
  call void @_ZdaPv(i8* %208) #14
  br label %delete.end269

delete.end269:                                    ; preds = %delete.notnull268, %delete.end
  %209 = load i32** %__Q, align 8
  %isnull270 = icmp eq i32* %209, null
  br i1 %isnull270, label %delete.end272, label %delete.notnull271

delete.notnull271:                                ; preds = %delete.end269
  %210 = bitcast i32* %209 to i8*
  call void @_ZdaPv(i8* %210) #14
  br label %delete.end272

delete.end272:                                    ; preds = %delete.notnull271, %delete.end269
  %211 = load i32** %__R, align 8
  %isnull273 = icmp eq i32* %211, null
  br i1 %isnull273, label %delete.end275, label %delete.notnull274

delete.notnull274:                                ; preds = %delete.end272
  %212 = bitcast i32* %211 to i8*
  call void @_ZdaPv(i8* %212) #14
  br label %delete.end275

delete.end275:                                    ; preds = %delete.notnull274, %delete.end272
  br label %if.end276

if.end276:                                        ; preds = %delete.end275, %if.end263
  ret void
}

; Function Attrs: inlinehint nounwind uwtable
define linkonce_odr i32 @_ZNK10ap_privateILi1024ELb0ELb0EE11getNumWordsEv(%class.ap_private.0* %this) #5 align 2 {
entry:
  %this.addr = alloca %class.ap_private.0*, align 8
  store %class.ap_private.0* %this, %class.ap_private.0** %this.addr, align 8
  %this1 = load %class.ap_private.0** %this.addr
  ret i32 16
}

; Function Attrs: inlinehint uwtable
define linkonce_odr i64 @_ZNK10ap_privateILi1024ELb0ELb0EE12getZExtValueEv(%class.ap_private.0* %this) #4 align 2 {
entry:
  %this.addr = alloca %class.ap_private.0*, align 8
  store %class.ap_private.0* %this, %class.ap_private.0** %this.addr, align 8
  %this1 = load %class.ap_private.0** %this.addr
  %call = call i32 @_ZNK10ap_privateILi1024ELb0ELb0EE13getActiveBitsEv(%class.ap_private.0* %this1)
  %cmp = icmp ule i32 %call, 64
  br i1 %cmp, label %cond.true, label %cond.false

cond.true:                                        ; preds = %entry
  br label %cond.end

cond.false:                                       ; preds = %entry
  call void @__assert_fail(i8* getelementptr inbounds ([54 x i8]* @.str25, i32 0, i32 0), i8* getelementptr inbounds ([61 x i8]* @.str2, i32 0, i32 0), i32 5182, i8* getelementptr inbounds ([107 x i8]* @__PRETTY_FUNCTION__._ZNK10ap_privateILi1024ELb0ELb0EE12getZExtValueEv, i32 0, i32 0)) #12
  unreachable
                                                  ; No predecessors!
  br label %cond.end

cond.end:                                         ; preds = %0, %cond.true
  %pVal = getelementptr inbounds %class.ap_private.0* %this1, i32 0, i32 0
  %arraydecay = getelementptr inbounds [16 x i64]* %pVal, i32 0, i32 0
  %1 = load i64* %arraydecay, align 8
  ret i64 %1
}

; Function Attrs: inlinehint uwtable
define linkonce_odr i32 @_ZNK10ap_privateILi1024ELb0ELb0EE13getActiveBitsEv(%class.ap_private.0* %this) #4 align 2 {
entry:
  %this.addr = alloca %class.ap_private.0*, align 8
  %bits = alloca i32, align 4
  store %class.ap_private.0* %this, %class.ap_private.0** %this.addr, align 8
  %this1 = load %class.ap_private.0** %this.addr
  %call = call i32 @_ZNK10ap_privateILi1024ELb0ELb0EE17countLeadingZerosEv(%class.ap_private.0* %this1)
  %sub = sub i32 1024, %call
  store i32 %sub, i32* %bits, align 4
  %0 = load i32* %bits, align 4
  %tobool = icmp ne i32 %0, 0
  br i1 %tobool, label %cond.true, label %cond.false

cond.true:                                        ; preds = %entry
  %1 = load i32* %bits, align 4
  br label %cond.end

cond.false:                                       ; preds = %entry
  br label %cond.end

cond.end:                                         ; preds = %cond.false, %cond.true
  %cond = phi i32 [ %1, %cond.true ], [ 1, %cond.false ]
  ret i32 %cond
}

; Function Attrs: inlinehint uwtable
define linkonce_odr i32 @_ZNK10ap_privateILi1024ELb0ELb0EE17countLeadingZerosEv(%class.ap_private.0* %this) #4 align 2 {
entry:
  %this.addr = alloca %class.ap_private.0*, align 8
  %Count = alloca i32, align 4
  %i = alloca i32, align 4
  store %class.ap_private.0* %this, %class.ap_private.0** %this.addr, align 8
  %this1 = load %class.ap_private.0** %this.addr
  %pVal = getelementptr inbounds %class.ap_private.0* %this1, i32 0, i32 0
  %arrayidx = getelementptr inbounds [16 x i64]* %pVal, i32 0, i64 15
  %0 = load i64* %arrayidx, align 8
  %call = call i32 @_ZN14ap_private_opsL20CountLeadingZeros_64Em(i64 %0)
  store i32 %call, i32* %Count, align 4
  %1 = load i32* %Count, align 4
  %cmp = icmp uge i32 %1, 0
  br i1 %cmp, label %if.then, label %if.end

if.then:                                          ; preds = %entry
  %2 = load i32* %Count, align 4
  %sub = sub i32 %2, 0
  store i32 %sub, i32* %Count, align 4
  br label %if.end

if.end:                                           ; preds = %if.then, %entry
  %pVal2 = getelementptr inbounds %class.ap_private.0* %this1, i32 0, i32 0
  %arrayidx3 = getelementptr inbounds [16 x i64]* %pVal2, i32 0, i64 15
  %3 = load i64* %arrayidx3, align 8
  %tobool = icmp ne i64 %3, 0
  br i1 %tobool, label %if.end18, label %if.then4

if.then4:                                         ; preds = %if.end
  store i32 15, i32* %i, align 4
  br label %for.cond

for.cond:                                         ; preds = %for.inc, %if.then4
  %4 = load i32* %i, align 4
  %tobool5 = icmp ne i32 %4, 0
  br i1 %tobool5, label %for.body, label %for.end

for.body:                                         ; preds = %for.cond
  %5 = load i32* %i, align 4
  %sub6 = sub nsw i32 %5, 1
  %idxprom = sext i32 %sub6 to i64
  %pVal7 = getelementptr inbounds %class.ap_private.0* %this1, i32 0, i32 0
  %arrayidx8 = getelementptr inbounds [16 x i64]* %pVal7, i32 0, i64 %idxprom
  %6 = load i64* %arrayidx8, align 8
  %tobool9 = icmp ne i64 %6, 0
  br i1 %tobool9, label %if.else, label %if.then10

if.then10:                                        ; preds = %for.body
  %7 = load i32* %Count, align 4
  %add = add i32 %7, 64
  store i32 %add, i32* %Count, align 4
  br label %if.end17

if.else:                                          ; preds = %for.body
  %8 = load i32* %i, align 4
  %sub11 = sub nsw i32 %8, 1
  %idxprom12 = sext i32 %sub11 to i64
  %pVal13 = getelementptr inbounds %class.ap_private.0* %this1, i32 0, i32 0
  %arrayidx14 = getelementptr inbounds [16 x i64]* %pVal13, i32 0, i64 %idxprom12
  %9 = load i64* %arrayidx14, align 8
  %call15 = call i32 @_ZN14ap_private_opsL20CountLeadingZeros_64Em(i64 %9)
  %10 = load i32* %Count, align 4
  %add16 = add i32 %10, %call15
  store i32 %add16, i32* %Count, align 4
  br label %for.end

if.end17:                                         ; preds = %if.then10
  br label %for.inc

for.inc:                                          ; preds = %if.end17
  %11 = load i32* %i, align 4
  %dec = add nsw i32 %11, -1
  store i32 %dec, i32* %i, align 4
  br label %for.cond

for.end:                                          ; preds = %if.else, %for.cond
  br label %if.end18

if.end18:                                         ; preds = %for.end, %if.end
  %12 = load i32* %Count, align 4
  ret i32 %12
}

; Function Attrs: inlinehint nounwind uwtable
define internal i32 @_ZN14ap_private_opsL20CountLeadingZeros_64Em(i64 %Value) #5 {
entry:
  %retval = alloca i32, align 4
  %Value.addr = alloca i64, align 8
  %Count = alloca i32, align 4
  store i64 %Value, i64* %Value.addr, align 8
  %0 = load i64* %Value.addr, align 8
  %tobool = icmp ne i64 %0, 0
  br i1 %tobool, label %if.end, label %if.then

if.then:                                          ; preds = %entry
  store i32 64, i32* %retval
  br label %return

if.end:                                           ; preds = %entry
  %1 = load i64* %Value.addr, align 8
  %2 = call i64 @llvm.ctlz.i64(i64 %1, i1 true)
  %cast = trunc i64 %2 to i32
  store i32 %cast, i32* %Count, align 4
  %3 = load i32* %Count, align 4
  store i32 %3, i32* %retval
  br label %return

return:                                           ; preds = %if.end, %if.then
  %4 = load i32* %retval
  ret i32 %4
}

; Function Attrs: nounwind readnone
declare i64 @llvm.ctlz.i64(i64, i1) #9

; Function Attrs: nounwind readnone
declare { i64, i1 } @llvm.umul.with.overflow.i64(i64, i64) #9

; Function Attrs: nobuiltin
declare noalias i8* @_Znam(i64) #10

; Function Attrs: nounwind
declare void @llvm.memset.p0i8.i64(i8* nocapture, i8, i64, i32, i1) #2

; Function Attrs: inlinehint nounwind uwtable
define linkonce_odr i64 @_ZNK10ap_privateILi1024ELb0ELb0EE8get_pValEi(%class.ap_private.0* %this, i32 %index) #5 align 2 {
entry:
  %this.addr = alloca %class.ap_private.0*, align 8
  %index.addr = alloca i32, align 4
  store %class.ap_private.0* %this, %class.ap_private.0** %this.addr, align 8
  store i32 %index, i32* %index.addr, align 4
  %this1 = load %class.ap_private.0** %this.addr
  %0 = load i32* %index.addr, align 4
  %idxprom = sext i32 %0 to i64
  %pVal = getelementptr inbounds %class.ap_private.0* %this1, i32 0, i32 0
  %arrayidx = getelementptr inbounds [16 x i64]* %pVal, i32 0, i64 %idxprom
  %1 = load i64* %arrayidx, align 8
  ret i64 %1
}

; Function Attrs: inlinehint uwtable
define internal void @_ZN14ap_private_opsL8KnuthDivEPjS0_S0_S0_jj(i32* %u, i32* %v, i32* %q, i32* %r, i32 %m, i32 %n) #4 {
entry:
  %u.addr = alloca i32*, align 8
  %v.addr = alloca i32*, align 8
  %q.addr = alloca i32*, align 8
  %r.addr = alloca i32*, align 8
  %m.addr = alloca i32, align 4
  %n.addr = alloca i32, align 4
  %b = alloca i64, align 8
  %shift = alloca i32, align 4
  %v_carry = alloca i32, align 4
  %u_carry = alloca i32, align 4
  %i = alloca i32, align 4
  %u_tmp = alloca i32, align 4
  %i28 = alloca i32, align 4
  %v_tmp = alloca i32, align 4
  %j = alloca i32, align 4
  %dividend = alloca i64, align 8
  %qp = alloca i64, align 8
  %rp = alloca i64, align 8
  %isNeg = alloca i8, align 1
  %i106 = alloca i32, align 4
  %u_tmp110 = alloca i64, align 8
  %subtrahend = alloca i64, align 8
  %borrow = alloca i8, align 1
  %result = alloca i64, align 8
  %k = alloca i32, align 4
  %carry = alloca i8, align 1
  %i162 = alloca i32, align 4
  %carry193 = alloca i8, align 1
  %i194 = alloca i32, align 4
  %limit = alloca i32, align 4
  %carry241 = alloca i32, align 4
  %i242 = alloca i32, align 4
  %i260 = alloca i32, align 4
  store i32* %u, i32** %u.addr, align 8
  store i32* %v, i32** %v.addr, align 8
  store i32* %q, i32** %q.addr, align 8
  store i32* %r, i32** %r.addr, align 8
  store i32 %m, i32* %m.addr, align 4
  store i32 %n, i32* %n.addr, align 4
  %0 = load i32** %u.addr, align 8
  %tobool = icmp ne i32* %0, null
  br i1 %tobool, label %cond.true, label %cond.false

cond.true:                                        ; preds = %entry
  br label %cond.end

cond.false:                                       ; preds = %entry
  call void @__assert_fail(i8* getelementptr inbounds ([29 x i8]* @.str30, i32 0, i32 0), i8* getelementptr inbounds ([61 x i8]* @.str2, i32 0, i32 0), i32 730, i8* getelementptr inbounds ([98 x i8]* @__PRETTY_FUNCTION__._ZN14ap_private_opsL8KnuthDivEPjS0_S0_S0_jj, i32 0, i32 0)) #12
  unreachable
                                                  ; No predecessors!
  br label %cond.end

cond.end:                                         ; preds = %1, %cond.true
  %2 = load i32** %v.addr, align 8
  %tobool1 = icmp ne i32* %2, null
  br i1 %tobool1, label %cond.true2, label %cond.false3

cond.true2:                                       ; preds = %cond.end
  br label %cond.end4

cond.false3:                                      ; preds = %cond.end
  call void @__assert_fail(i8* getelementptr inbounds ([28 x i8]* @.str31, i32 0, i32 0), i8* getelementptr inbounds ([61 x i8]* @.str2, i32 0, i32 0), i32 731, i8* getelementptr inbounds ([98 x i8]* @__PRETTY_FUNCTION__._ZN14ap_private_opsL8KnuthDivEPjS0_S0_S0_jj, i32 0, i32 0)) #12
  unreachable
                                                  ; No predecessors!
  br label %cond.end4

cond.end4:                                        ; preds = %3, %cond.true2
  %4 = load i32** %q.addr, align 8
  %tobool5 = icmp ne i32* %4, null
  br i1 %tobool5, label %cond.true6, label %cond.false7

cond.true6:                                       ; preds = %cond.end4
  br label %cond.end8

cond.false7:                                      ; preds = %cond.end4
  call void @__assert_fail(i8* getelementptr inbounds ([29 x i8]* @.str32, i32 0, i32 0), i8* getelementptr inbounds ([61 x i8]* @.str2, i32 0, i32 0), i32 732, i8* getelementptr inbounds ([98 x i8]* @__PRETTY_FUNCTION__._ZN14ap_private_opsL8KnuthDivEPjS0_S0_S0_jj, i32 0, i32 0)) #12
  unreachable
                                                  ; No predecessors!
  br label %cond.end8

cond.end8:                                        ; preds = %5, %cond.true6
  %6 = load i32** %u.addr, align 8
  %7 = load i32** %v.addr, align 8
  %cmp = icmp ne i32* %6, %7
  br i1 %cmp, label %land.lhs.true, label %cond.false13

land.lhs.true:                                    ; preds = %cond.end8
  %8 = load i32** %u.addr, align 8
  %9 = load i32** %q.addr, align 8
  %cmp9 = icmp ne i32* %8, %9
  br i1 %cmp9, label %land.lhs.true10, label %cond.false13

land.lhs.true10:                                  ; preds = %land.lhs.true
  %10 = load i32** %v.addr, align 8
  %11 = load i32** %q.addr, align 8
  %cmp11 = icmp ne i32* %10, %11
  br i1 %cmp11, label %cond.true12, label %cond.false13

cond.true12:                                      ; preds = %land.lhs.true10
  br label %cond.end14

cond.false13:                                     ; preds = %land.lhs.true10, %land.lhs.true, %cond.end8
  call void @__assert_fail(i8* getelementptr inbounds ([57 x i8]* @.str33, i32 0, i32 0), i8* getelementptr inbounds ([61 x i8]* @.str2, i32 0, i32 0), i32 733, i8* getelementptr inbounds ([98 x i8]* @__PRETTY_FUNCTION__._ZN14ap_private_opsL8KnuthDivEPjS0_S0_S0_jj, i32 0, i32 0)) #12
  unreachable
                                                  ; No predecessors!
  br label %cond.end14

cond.end14:                                       ; preds = %12, %cond.true12
  %13 = load i32* %n.addr, align 4
  %cmp15 = icmp ugt i32 %13, 1
  br i1 %cmp15, label %cond.true16, label %cond.false17

cond.true16:                                      ; preds = %cond.end14
  br label %cond.end18

cond.false17:                                     ; preds = %cond.end14
  call void @__assert_fail(i8* getelementptr inbounds ([23 x i8]* @.str34, i32 0, i32 0), i8* getelementptr inbounds ([61 x i8]* @.str2, i32 0, i32 0), i32 734, i8* getelementptr inbounds ([98 x i8]* @__PRETTY_FUNCTION__._ZN14ap_private_opsL8KnuthDivEPjS0_S0_S0_jj, i32 0, i32 0)) #12
  unreachable
                                                  ; No predecessors!
  br label %cond.end18

cond.end18:                                       ; preds = %14, %cond.true16
  store i64 4294967296, i64* %b, align 8
  %15 = load i32* %n.addr, align 4
  %sub = sub i32 %15, 1
  %idxprom = zext i32 %sub to i64
  %16 = load i32** %v.addr, align 8
  %arrayidx = getelementptr inbounds i32* %16, i64 %idxprom
  %17 = load i32* %arrayidx, align 4
  %call = call i32 @_ZN14ap_private_opsL20CountLeadingZeros_32Ej(i32 %17)
  store i32 %call, i32* %shift, align 4
  store i32 0, i32* %v_carry, align 4
  store i32 0, i32* %u_carry, align 4
  %18 = load i32* %shift, align 4
  %tobool19 = icmp ne i32 %18, 0
  br i1 %tobool19, label %if.then, label %if.end

if.then:                                          ; preds = %cond.end18
  store i32 0, i32* %i, align 4
  br label %for.cond

for.cond:                                         ; preds = %for.inc, %if.then
  %19 = load i32* %i, align 4
  %20 = load i32* %m.addr, align 4
  %21 = load i32* %n.addr, align 4
  %add = add i32 %20, %21
  %cmp20 = icmp ult i32 %19, %add
  br i1 %cmp20, label %for.body, label %for.end

for.body:                                         ; preds = %for.cond
  %22 = load i32* %i, align 4
  %idxprom21 = zext i32 %22 to i64
  %23 = load i32** %u.addr, align 8
  %arrayidx22 = getelementptr inbounds i32* %23, i64 %idxprom21
  %24 = load i32* %arrayidx22, align 4
  %25 = load i32* %shift, align 4
  %sub23 = sub i32 32, %25
  %shr = lshr i32 %24, %sub23
  store i32 %shr, i32* %u_tmp, align 4
  %26 = load i32* %i, align 4
  %idxprom24 = zext i32 %26 to i64
  %27 = load i32** %u.addr, align 8
  %arrayidx25 = getelementptr inbounds i32* %27, i64 %idxprom24
  %28 = load i32* %arrayidx25, align 4
  %29 = load i32* %shift, align 4
  %shl = shl i32 %28, %29
  %30 = load i32* %u_carry, align 4
  %or = or i32 %shl, %30
  %31 = load i32* %i, align 4
  %idxprom26 = zext i32 %31 to i64
  %32 = load i32** %u.addr, align 8
  %arrayidx27 = getelementptr inbounds i32* %32, i64 %idxprom26
  store i32 %or, i32* %arrayidx27, align 4
  %33 = load i32* %u_tmp, align 4
  store i32 %33, i32* %u_carry, align 4
  br label %for.inc

for.inc:                                          ; preds = %for.body
  %34 = load i32* %i, align 4
  %inc = add i32 %34, 1
  store i32 %inc, i32* %i, align 4
  br label %for.cond

for.end:                                          ; preds = %for.cond
  store i32 0, i32* %i28, align 4
  br label %for.cond29

for.cond29:                                       ; preds = %for.inc42, %for.end
  %35 = load i32* %i28, align 4
  %36 = load i32* %n.addr, align 4
  %cmp30 = icmp ult i32 %35, %36
  br i1 %cmp30, label %for.body31, label %for.end44

for.body31:                                       ; preds = %for.cond29
  %37 = load i32* %i28, align 4
  %idxprom32 = zext i32 %37 to i64
  %38 = load i32** %v.addr, align 8
  %arrayidx33 = getelementptr inbounds i32* %38, i64 %idxprom32
  %39 = load i32* %arrayidx33, align 4
  %40 = load i32* %shift, align 4
  %sub34 = sub i32 32, %40
  %shr35 = lshr i32 %39, %sub34
  store i32 %shr35, i32* %v_tmp, align 4
  %41 = load i32* %i28, align 4
  %idxprom36 = zext i32 %41 to i64
  %42 = load i32** %v.addr, align 8
  %arrayidx37 = getelementptr inbounds i32* %42, i64 %idxprom36
  %43 = load i32* %arrayidx37, align 4
  %44 = load i32* %shift, align 4
  %shl38 = shl i32 %43, %44
  %45 = load i32* %v_carry, align 4
  %or39 = or i32 %shl38, %45
  %46 = load i32* %i28, align 4
  %idxprom40 = zext i32 %46 to i64
  %47 = load i32** %v.addr, align 8
  %arrayidx41 = getelementptr inbounds i32* %47, i64 %idxprom40
  store i32 %or39, i32* %arrayidx41, align 4
  %48 = load i32* %v_tmp, align 4
  store i32 %48, i32* %v_carry, align 4
  br label %for.inc42

for.inc42:                                        ; preds = %for.body31
  %49 = load i32* %i28, align 4
  %inc43 = add i32 %49, 1
  store i32 %inc43, i32* %i28, align 4
  br label %for.cond29

for.end44:                                        ; preds = %for.cond29
  br label %if.end

if.end:                                           ; preds = %for.end44, %cond.end18
  %50 = load i32* %u_carry, align 4
  %51 = load i32* %m.addr, align 4
  %52 = load i32* %n.addr, align 4
  %add45 = add i32 %51, %52
  %idxprom46 = zext i32 %add45 to i64
  %53 = load i32** %u.addr, align 8
  %arrayidx47 = getelementptr inbounds i32* %53, i64 %idxprom46
  store i32 %50, i32* %arrayidx47, align 4
  %54 = load i32* %m.addr, align 4
  store i32 %54, i32* %j, align 4
  br label %do.body

do.body:                                          ; preds = %do.cond, %if.end
  %55 = load i32* %j, align 4
  %56 = load i32* %n.addr, align 4
  %add48 = add i32 %55, %56
  %idxprom49 = zext i32 %add48 to i64
  %57 = load i32** %u.addr, align 8
  %arrayidx50 = getelementptr inbounds i32* %57, i64 %idxprom49
  %58 = load i32* %arrayidx50, align 4
  %conv = zext i32 %58 to i64
  %shl51 = shl i64 %conv, 32
  %59 = load i32* %j, align 4
  %60 = load i32* %n.addr, align 4
  %add52 = add i32 %59, %60
  %sub53 = sub i32 %add52, 1
  %idxprom54 = zext i32 %sub53 to i64
  %61 = load i32** %u.addr, align 8
  %arrayidx55 = getelementptr inbounds i32* %61, i64 %idxprom54
  %62 = load i32* %arrayidx55, align 4
  %conv56 = zext i32 %62 to i64
  %add57 = add i64 %shl51, %conv56
  store i64 %add57, i64* %dividend, align 8
  %63 = load i64* %dividend, align 8
  %64 = load i32* %n.addr, align 4
  %sub58 = sub i32 %64, 1
  %idxprom59 = zext i32 %sub58 to i64
  %65 = load i32** %v.addr, align 8
  %arrayidx60 = getelementptr inbounds i32* %65, i64 %idxprom59
  %66 = load i32* %arrayidx60, align 4
  %conv61 = zext i32 %66 to i64
  %div = udiv i64 %63, %conv61
  store i64 %div, i64* %qp, align 8
  %67 = load i64* %dividend, align 8
  %68 = load i32* %n.addr, align 4
  %sub62 = sub i32 %68, 1
  %idxprom63 = zext i32 %sub62 to i64
  %69 = load i32** %v.addr, align 8
  %arrayidx64 = getelementptr inbounds i32* %69, i64 %idxprom63
  %70 = load i32* %arrayidx64, align 4
  %conv65 = zext i32 %70 to i64
  %rem = urem i64 %67, %conv65
  store i64 %rem, i64* %rp, align 8
  %71 = load i64* %qp, align 8
  %72 = load i64* %b, align 8
  %cmp66 = icmp eq i64 %71, %72
  br i1 %cmp66, label %if.then79, label %lor.lhs.false

lor.lhs.false:                                    ; preds = %do.body
  %73 = load i64* %qp, align 8
  %74 = load i32* %n.addr, align 4
  %sub67 = sub i32 %74, 2
  %idxprom68 = zext i32 %sub67 to i64
  %75 = load i32** %v.addr, align 8
  %arrayidx69 = getelementptr inbounds i32* %75, i64 %idxprom68
  %76 = load i32* %arrayidx69, align 4
  %conv70 = zext i32 %76 to i64
  %mul = mul i64 %73, %conv70
  %77 = load i64* %b, align 8
  %78 = load i64* %rp, align 8
  %mul71 = mul i64 %77, %78
  %79 = load i32* %j, align 4
  %80 = load i32* %n.addr, align 4
  %add72 = add i32 %79, %80
  %sub73 = sub i32 %add72, 2
  %idxprom74 = zext i32 %sub73 to i64
  %81 = load i32** %u.addr, align 8
  %arrayidx75 = getelementptr inbounds i32* %81, i64 %idxprom74
  %82 = load i32* %arrayidx75, align 4
  %conv76 = zext i32 %82 to i64
  %add77 = add i64 %mul71, %conv76
  %cmp78 = icmp ugt i64 %mul, %add77
  br i1 %cmp78, label %if.then79, label %if.end105

if.then79:                                        ; preds = %lor.lhs.false, %do.body
  %83 = load i64* %qp, align 8
  %dec = add i64 %83, -1
  store i64 %dec, i64* %qp, align 8
  %84 = load i32* %n.addr, align 4
  %sub80 = sub i32 %84, 1
  %idxprom81 = zext i32 %sub80 to i64
  %85 = load i32** %v.addr, align 8
  %arrayidx82 = getelementptr inbounds i32* %85, i64 %idxprom81
  %86 = load i32* %arrayidx82, align 4
  %conv83 = zext i32 %86 to i64
  %87 = load i64* %rp, align 8
  %add84 = add i64 %87, %conv83
  store i64 %add84, i64* %rp, align 8
  %88 = load i64* %rp, align 8
  %89 = load i64* %b, align 8
  %cmp85 = icmp ult i64 %88, %89
  br i1 %cmp85, label %land.lhs.true86, label %if.end104

land.lhs.true86:                                  ; preds = %if.then79
  %90 = load i64* %qp, align 8
  %91 = load i64* %b, align 8
  %cmp87 = icmp eq i64 %90, %91
  br i1 %cmp87, label %if.then102, label %lor.lhs.false88

lor.lhs.false88:                                  ; preds = %land.lhs.true86
  %92 = load i64* %qp, align 8
  %93 = load i32* %n.addr, align 4
  %sub89 = sub i32 %93, 2
  %idxprom90 = zext i32 %sub89 to i64
  %94 = load i32** %v.addr, align 8
  %arrayidx91 = getelementptr inbounds i32* %94, i64 %idxprom90
  %95 = load i32* %arrayidx91, align 4
  %conv92 = zext i32 %95 to i64
  %mul93 = mul i64 %92, %conv92
  %96 = load i64* %b, align 8
  %97 = load i64* %rp, align 8
  %mul94 = mul i64 %96, %97
  %98 = load i32* %j, align 4
  %99 = load i32* %n.addr, align 4
  %add95 = add i32 %98, %99
  %sub96 = sub i32 %add95, 2
  %idxprom97 = zext i32 %sub96 to i64
  %100 = load i32** %u.addr, align 8
  %arrayidx98 = getelementptr inbounds i32* %100, i64 %idxprom97
  %101 = load i32* %arrayidx98, align 4
  %conv99 = zext i32 %101 to i64
  %add100 = add i64 %mul94, %conv99
  %cmp101 = icmp ugt i64 %mul93, %add100
  br i1 %cmp101, label %if.then102, label %if.end104

if.then102:                                       ; preds = %lor.lhs.false88, %land.lhs.true86
  %102 = load i64* %qp, align 8
  %dec103 = add i64 %102, -1
  store i64 %dec103, i64* %qp, align 8
  br label %if.end104

if.end104:                                        ; preds = %if.then102, %lor.lhs.false88, %if.then79
  br label %if.end105

if.end105:                                        ; preds = %if.end104, %lor.lhs.false
  store i8 0, i8* %isNeg, align 1
  store i32 0, i32* %i106, align 4
  br label %for.cond107

for.cond107:                                      ; preds = %for.inc157, %if.end105
  %103 = load i32* %i106, align 4
  %104 = load i32* %n.addr, align 4
  %cmp108 = icmp ult i32 %103, %104
  br i1 %cmp108, label %for.body109, label %for.end159

for.body109:                                      ; preds = %for.cond107
  %105 = load i32* %j, align 4
  %106 = load i32* %i106, align 4
  %add111 = add i32 %105, %106
  %idxprom112 = zext i32 %add111 to i64
  %107 = load i32** %u.addr, align 8
  %arrayidx113 = getelementptr inbounds i32* %107, i64 %idxprom112
  %108 = load i32* %arrayidx113, align 4
  %conv114 = zext i32 %108 to i64
  %109 = load i32* %j, align 4
  %110 = load i32* %i106, align 4
  %add115 = add i32 %109, %110
  %add116 = add i32 %add115, 1
  %idxprom117 = zext i32 %add116 to i64
  %111 = load i32** %u.addr, align 8
  %arrayidx118 = getelementptr inbounds i32* %111, i64 %idxprom117
  %112 = load i32* %arrayidx118, align 4
  %conv119 = zext i32 %112 to i64
  %shl120 = shl i64 %conv119, 32
  %or121 = or i64 %conv114, %shl120
  store i64 %or121, i64* %u_tmp110, align 8
  %113 = load i64* %qp, align 8
  %114 = load i32* %i106, align 4
  %idxprom122 = zext i32 %114 to i64
  %115 = load i32** %v.addr, align 8
  %arrayidx123 = getelementptr inbounds i32* %115, i64 %idxprom122
  %116 = load i32* %arrayidx123, align 4
  %conv124 = zext i32 %116 to i64
  %mul125 = mul i64 %113, %conv124
  store i64 %mul125, i64* %subtrahend, align 8
  %117 = load i64* %subtrahend, align 8
  %118 = load i64* %u_tmp110, align 8
  %cmp126 = icmp ugt i64 %117, %118
  %frombool = zext i1 %cmp126 to i8
  store i8 %frombool, i8* %borrow, align 1
  %119 = load i64* %u_tmp110, align 8
  %120 = load i64* %subtrahend, align 8
  %sub127 = sub i64 %119, %120
  store i64 %sub127, i64* %result, align 8
  %121 = load i32* %j, align 4
  %122 = load i32* %i106, align 4
  %add128 = add i32 %121, %122
  store i32 %add128, i32* %k, align 4
  %123 = load i64* %result, align 8
  %124 = load i64* %b, align 8
  %sub129 = sub i64 %124, 1
  %and = and i64 %123, %sub129
  %conv130 = trunc i64 %and to i32
  %125 = load i32* %k, align 4
  %inc131 = add i32 %125, 1
  store i32 %inc131, i32* %k, align 4
  %idxprom132 = zext i32 %125 to i64
  %126 = load i32** %u.addr, align 8
  %arrayidx133 = getelementptr inbounds i32* %126, i64 %idxprom132
  store i32 %conv130, i32* %arrayidx133, align 4
  %127 = load i64* %result, align 8
  %shr134 = lshr i64 %127, 32
  %conv135 = trunc i64 %shr134 to i32
  %128 = load i32* %k, align 4
  %inc136 = add i32 %128, 1
  store i32 %inc136, i32* %k, align 4
  %idxprom137 = zext i32 %128 to i64
  %129 = load i32** %u.addr, align 8
  %arrayidx138 = getelementptr inbounds i32* %129, i64 %idxprom137
  store i32 %conv135, i32* %arrayidx138, align 4
  br label %while.cond

while.cond:                                       ; preds = %while.body, %for.body109
  %130 = load i8* %borrow, align 1
  %tobool139 = trunc i8 %130 to i1
  br i1 %tobool139, label %land.rhs, label %land.end

land.rhs:                                         ; preds = %while.cond
  %131 = load i32* %k, align 4
  %132 = load i32* %m.addr, align 4
  %133 = load i32* %n.addr, align 4
  %add140 = add i32 %132, %133
  %cmp141 = icmp ule i32 %131, %add140
  br label %land.end

land.end:                                         ; preds = %land.rhs, %while.cond
  %134 = phi i1 [ false, %while.cond ], [ %cmp141, %land.rhs ]
  br i1 %134, label %while.body, label %while.end

while.body:                                       ; preds = %land.end
  %135 = load i32* %k, align 4
  %idxprom142 = zext i32 %135 to i64
  %136 = load i32** %u.addr, align 8
  %arrayidx143 = getelementptr inbounds i32* %136, i64 %idxprom142
  %137 = load i32* %arrayidx143, align 4
  %cmp144 = icmp eq i32 %137, 0
  %frombool145 = zext i1 %cmp144 to i8
  store i8 %frombool145, i8* %borrow, align 1
  %138 = load i32* %k, align 4
  %idxprom146 = zext i32 %138 to i64
  %139 = load i32** %u.addr, align 8
  %arrayidx147 = getelementptr inbounds i32* %139, i64 %idxprom146
  %140 = load i32* %arrayidx147, align 4
  %dec148 = add i32 %140, -1
  store i32 %dec148, i32* %arrayidx147, align 4
  %141 = load i32* %k, align 4
  %inc149 = add i32 %141, 1
  store i32 %inc149, i32* %k, align 4
  br label %while.cond

while.end:                                        ; preds = %land.end
  %142 = load i8* %borrow, align 1
  %tobool150 = trunc i8 %142 to i1
  %conv151 = zext i1 %tobool150 to i32
  %143 = load i8* %isNeg, align 1
  %tobool152 = trunc i8 %143 to i1
  %conv153 = zext i1 %tobool152 to i32
  %or154 = or i32 %conv153, %conv151
  %tobool155 = icmp ne i32 %or154, 0
  %frombool156 = zext i1 %tobool155 to i8
  store i8 %frombool156, i8* %isNeg, align 1
  br label %for.inc157

for.inc157:                                       ; preds = %while.end
  %144 = load i32* %i106, align 4
  %inc158 = add i32 %144, 1
  store i32 %inc158, i32* %i106, align 4
  br label %for.cond107

for.end159:                                       ; preds = %for.cond107
  %145 = load i8* %isNeg, align 1
  %tobool160 = trunc i8 %145 to i1
  br i1 %tobool160, label %if.then161, label %if.end184

if.then161:                                       ; preds = %for.end159
  store i8 1, i8* %carry, align 1
  store i32 0, i32* %i162, align 4
  br label %for.cond163

for.cond163:                                      ; preds = %for.inc181, %if.then161
  %146 = load i32* %i162, align 4
  %147 = load i32* %m.addr, align 4
  %148 = load i32* %n.addr, align 4
  %add164 = add i32 %147, %148
  %cmp165 = icmp ule i32 %146, %add164
  br i1 %cmp165, label %for.body166, label %for.end183

for.body166:                                      ; preds = %for.cond163
  %149 = load i32* %i162, align 4
  %idxprom167 = zext i32 %149 to i64
  %150 = load i32** %u.addr, align 8
  %arrayidx168 = getelementptr inbounds i32* %150, i64 %idxprom167
  %151 = load i32* %arrayidx168, align 4
  %neg = xor i32 %151, -1
  %152 = load i8* %carry, align 1
  %tobool169 = trunc i8 %152 to i1
  %conv170 = zext i1 %tobool169 to i32
  %add171 = add i32 %neg, %conv170
  %153 = load i32* %i162, align 4
  %idxprom172 = zext i32 %153 to i64
  %154 = load i32** %u.addr, align 8
  %arrayidx173 = getelementptr inbounds i32* %154, i64 %idxprom172
  store i32 %add171, i32* %arrayidx173, align 4
  %155 = load i8* %carry, align 1
  %tobool174 = trunc i8 %155 to i1
  br i1 %tobool174, label %land.rhs175, label %land.end179

land.rhs175:                                      ; preds = %for.body166
  %156 = load i32* %i162, align 4
  %idxprom176 = zext i32 %156 to i64
  %157 = load i32** %u.addr, align 8
  %arrayidx177 = getelementptr inbounds i32* %157, i64 %idxprom176
  %158 = load i32* %arrayidx177, align 4
  %cmp178 = icmp eq i32 %158, 0
  br label %land.end179

land.end179:                                      ; preds = %land.rhs175, %for.body166
  %159 = phi i1 [ false, %for.body166 ], [ %cmp178, %land.rhs175 ]
  %frombool180 = zext i1 %159 to i8
  store i8 %frombool180, i8* %carry, align 1
  br label %for.inc181

for.inc181:                                       ; preds = %land.end179
  %160 = load i32* %i162, align 4
  %inc182 = add i32 %160, 1
  store i32 %inc182, i32* %i162, align 4
  br label %for.cond163

for.end183:                                       ; preds = %for.cond163
  br label %if.end184

if.end184:                                        ; preds = %for.end183, %for.end159
  %161 = load i64* %qp, align 8
  %conv185 = trunc i64 %161 to i32
  %162 = load i32* %j, align 4
  %idxprom186 = sext i32 %162 to i64
  %163 = load i32** %q.addr, align 8
  %arrayidx187 = getelementptr inbounds i32* %163, i64 %idxprom186
  store i32 %conv185, i32* %arrayidx187, align 4
  %164 = load i8* %isNeg, align 1
  %tobool188 = trunc i8 %164 to i1
  br i1 %tobool188, label %if.then189, label %if.end234

if.then189:                                       ; preds = %if.end184
  %165 = load i32* %j, align 4
  %idxprom190 = sext i32 %165 to i64
  %166 = load i32** %q.addr, align 8
  %arrayidx191 = getelementptr inbounds i32* %166, i64 %idxprom190
  %167 = load i32* %arrayidx191, align 4
  %dec192 = add i32 %167, -1
  store i32 %dec192, i32* %arrayidx191, align 4
  store i8 0, i8* %carry193, align 1
  store i32 0, i32* %i194, align 4
  br label %for.cond195

for.cond195:                                      ; preds = %for.inc225, %if.then189
  %168 = load i32* %i194, align 4
  %169 = load i32* %n.addr, align 4
  %cmp196 = icmp ult i32 %168, %169
  br i1 %cmp196, label %for.body197, label %for.end227

for.body197:                                      ; preds = %for.cond195
  %170 = load i32* %j, align 4
  %171 = load i32* %i194, align 4
  %add198 = add i32 %170, %171
  %idxprom199 = zext i32 %add198 to i64
  %172 = load i32** %u.addr, align 8
  %arrayidx200 = getelementptr inbounds i32* %172, i64 %idxprom199
  %173 = load i32* %arrayidx200, align 4
  %174 = load i32* %i194, align 4
  %idxprom201 = zext i32 %174 to i64
  %175 = load i32** %v.addr, align 8
  %arrayidx202 = getelementptr inbounds i32* %175, i64 %idxprom201
  %176 = load i32* %arrayidx202, align 4
  %call203 = call i32 @_ZN8AESL_std3minIjEET_S1_S1_(i32 %173, i32 %176)
  store i32 %call203, i32* %limit, align 4
  %177 = load i32* %i194, align 4
  %idxprom204 = zext i32 %177 to i64
  %178 = load i32** %v.addr, align 8
  %arrayidx205 = getelementptr inbounds i32* %178, i64 %idxprom204
  %179 = load i32* %arrayidx205, align 4
  %180 = load i8* %carry193, align 1
  %tobool206 = trunc i8 %180 to i1
  %conv207 = zext i1 %tobool206 to i32
  %add208 = add i32 %179, %conv207
  %181 = load i32* %j, align 4
  %182 = load i32* %i194, align 4
  %add209 = add i32 %181, %182
  %idxprom210 = zext i32 %add209 to i64
  %183 = load i32** %u.addr, align 8
  %arrayidx211 = getelementptr inbounds i32* %183, i64 %idxprom210
  %184 = load i32* %arrayidx211, align 4
  %add212 = add i32 %184, %add208
  store i32 %add212, i32* %arrayidx211, align 4
  %185 = load i32* %j, align 4
  %186 = load i32* %i194, align 4
  %add213 = add i32 %185, %186
  %idxprom214 = zext i32 %add213 to i64
  %187 = load i32** %u.addr, align 8
  %arrayidx215 = getelementptr inbounds i32* %187, i64 %idxprom214
  %188 = load i32* %arrayidx215, align 4
  %189 = load i32* %limit, align 4
  %cmp216 = icmp ult i32 %188, %189
  br i1 %cmp216, label %lor.end, label %lor.rhs

lor.rhs:                                          ; preds = %for.body197
  %190 = load i8* %carry193, align 1
  %tobool217 = trunc i8 %190 to i1
  br i1 %tobool217, label %land.rhs218, label %land.end223

land.rhs218:                                      ; preds = %lor.rhs
  %191 = load i32* %j, align 4
  %192 = load i32* %i194, align 4
  %add219 = add i32 %191, %192
  %idxprom220 = zext i32 %add219 to i64
  %193 = load i32** %u.addr, align 8
  %arrayidx221 = getelementptr inbounds i32* %193, i64 %idxprom220
  %194 = load i32* %arrayidx221, align 4
  %195 = load i32* %limit, align 4
  %cmp222 = icmp eq i32 %194, %195
  br label %land.end223

land.end223:                                      ; preds = %land.rhs218, %lor.rhs
  %196 = phi i1 [ false, %lor.rhs ], [ %cmp222, %land.rhs218 ]
  br label %lor.end

lor.end:                                          ; preds = %land.end223, %for.body197
  %197 = phi i1 [ true, %for.body197 ], [ %196, %land.end223 ]
  %frombool224 = zext i1 %197 to i8
  store i8 %frombool224, i8* %carry193, align 1
  br label %for.inc225

for.inc225:                                       ; preds = %lor.end
  %198 = load i32* %i194, align 4
  %inc226 = add i32 %198, 1
  store i32 %inc226, i32* %i194, align 4
  br label %for.cond195

for.end227:                                       ; preds = %for.cond195
  %199 = load i8* %carry193, align 1
  %tobool228 = trunc i8 %199 to i1
  %conv229 = zext i1 %tobool228 to i32
  %200 = load i32* %j, align 4
  %201 = load i32* %n.addr, align 4
  %add230 = add i32 %200, %201
  %idxprom231 = zext i32 %add230 to i64
  %202 = load i32** %u.addr, align 8
  %arrayidx232 = getelementptr inbounds i32* %202, i64 %idxprom231
  %203 = load i32* %arrayidx232, align 4
  %add233 = add i32 %203, %conv229
  store i32 %add233, i32* %arrayidx232, align 4
  br label %if.end234

if.end234:                                        ; preds = %for.end227, %if.end184
  br label %do.cond

do.cond:                                          ; preds = %if.end234
  %204 = load i32* %j, align 4
  %dec235 = add nsw i32 %204, -1
  store i32 %dec235, i32* %j, align 4
  %cmp236 = icmp sge i32 %dec235, 0
  br i1 %cmp236, label %do.body, label %do.end

do.end:                                           ; preds = %do.cond
  %205 = load i32** %r.addr, align 8
  %tobool237 = icmp ne i32* %205, null
  br i1 %tobool237, label %if.then238, label %if.end273

if.then238:                                       ; preds = %do.end
  %206 = load i32* %shift, align 4
  %tobool239 = icmp ne i32 %206, 0
  br i1 %tobool239, label %if.then240, label %if.else

if.then240:                                       ; preds = %if.then238
  store i32 0, i32* %carry241, align 4
  %207 = load i32* %n.addr, align 4
  %sub243 = sub i32 %207, 1
  store i32 %sub243, i32* %i242, align 4
  br label %for.cond244

for.cond244:                                      ; preds = %for.inc257, %if.then240
  %208 = load i32* %i242, align 4
  %cmp245 = icmp sge i32 %208, 0
  br i1 %cmp245, label %for.body246, label %for.end259

for.body246:                                      ; preds = %for.cond244
  %209 = load i32* %i242, align 4
  %idxprom247 = sext i32 %209 to i64
  %210 = load i32** %u.addr, align 8
  %arrayidx248 = getelementptr inbounds i32* %210, i64 %idxprom247
  %211 = load i32* %arrayidx248, align 4
  %212 = load i32* %shift, align 4
  %shr249 = lshr i32 %211, %212
  %213 = load i32* %carry241, align 4
  %or250 = or i32 %shr249, %213
  %214 = load i32* %i242, align 4
  %idxprom251 = sext i32 %214 to i64
  %215 = load i32** %r.addr, align 8
  %arrayidx252 = getelementptr inbounds i32* %215, i64 %idxprom251
  store i32 %or250, i32* %arrayidx252, align 4
  %216 = load i32* %i242, align 4
  %idxprom253 = sext i32 %216 to i64
  %217 = load i32** %u.addr, align 8
  %arrayidx254 = getelementptr inbounds i32* %217, i64 %idxprom253
  %218 = load i32* %arrayidx254, align 4
  %219 = load i32* %shift, align 4
  %sub255 = sub i32 32, %219
  %shl256 = shl i32 %218, %sub255
  store i32 %shl256, i32* %carry241, align 4
  br label %for.inc257

for.inc257:                                       ; preds = %for.body246
  %220 = load i32* %i242, align 4
  %dec258 = add nsw i32 %220, -1
  store i32 %dec258, i32* %i242, align 4
  br label %for.cond244

for.end259:                                       ; preds = %for.cond244
  br label %if.end272

if.else:                                          ; preds = %if.then238
  %221 = load i32* %n.addr, align 4
  %sub261 = sub i32 %221, 1
  store i32 %sub261, i32* %i260, align 4
  br label %for.cond262

for.cond262:                                      ; preds = %for.inc269, %if.else
  %222 = load i32* %i260, align 4
  %cmp263 = icmp sge i32 %222, 0
  br i1 %cmp263, label %for.body264, label %for.end271

for.body264:                                      ; preds = %for.cond262
  %223 = load i32* %i260, align 4
  %idxprom265 = sext i32 %223 to i64
  %224 = load i32** %u.addr, align 8
  %arrayidx266 = getelementptr inbounds i32* %224, i64 %idxprom265
  %225 = load i32* %arrayidx266, align 4
  %226 = load i32* %i260, align 4
  %idxprom267 = sext i32 %226 to i64
  %227 = load i32** %r.addr, align 8
  %arrayidx268 = getelementptr inbounds i32* %227, i64 %idxprom267
  store i32 %225, i32* %arrayidx268, align 4
  br label %for.inc269

for.inc269:                                       ; preds = %for.body264
  %228 = load i32* %i260, align 4
  %dec270 = add nsw i32 %228, -1
  store i32 %dec270, i32* %i260, align 4
  br label %for.cond262

for.end271:                                       ; preds = %for.cond262
  br label %if.end272

if.end272:                                        ; preds = %for.end271, %for.end259
  br label %if.end273

if.end273:                                        ; preds = %if.end272, %do.end
  ret void
}

; Function Attrs: inlinehint nounwind uwtable
define linkonce_odr zeroext i1 @_ZNK10ap_privateILi1024ELb0ELb0EE12isSingleWordEv(%class.ap_private.0* %this) #5 align 2 {
entry:
  %this.addr = alloca %class.ap_private.0*, align 8
  store %class.ap_private.0* %this, %class.ap_private.0** %this.addr, align 8
  %this1 = load %class.ap_private.0** %this.addr
  ret i1 false
}

; Function Attrs: inlinehint nounwind uwtable
define linkonce_odr void @_ZN10ap_privateILi1024ELb0ELb0EE7set_VALEm(%class.ap_private.0* %this, i64 %value) #5 align 2 {
entry:
  %this.addr = alloca %class.ap_private.0*, align 8
  %value.addr = alloca i64, align 8
  store %class.ap_private.0* %this, %class.ap_private.0** %this.addr, align 8
  store i64 %value, i64* %value.addr, align 8
  %this1 = load %class.ap_private.0** %this.addr
  %0 = load i64* %value.addr, align 8
  %pVal = getelementptr inbounds %class.ap_private.0* %this1, i32 0, i32 0
  %arrayidx = getelementptr inbounds [16 x i64]* %pVal, i32 0, i64 0
  store i64 %0, i64* %arrayidx, align 8
  ret void
}

; Function Attrs: inlinehint nounwind uwtable
define linkonce_odr void @_ZN10ap_privateILi1024ELb0ELb0EE5clearEv(%class.ap_private.0* %this) #5 align 2 {
entry:
  %this.addr = alloca %class.ap_private.0*, align 8
  store %class.ap_private.0* %this, %class.ap_private.0** %this.addr, align 8
  %this1 = load %class.ap_private.0** %this.addr
  %pVal = getelementptr inbounds %class.ap_private.0* %this1, i32 0, i32 0
  %0 = bitcast [16 x i64]* %pVal to i8*
  call void @llvm.memset.p0i8.i64(i8* %0, i8 0, i64 128, i32 8, i1 false)
  ret void
}

; Function Attrs: inlinehint nounwind uwtable
define linkonce_odr void @_ZN10ap_privateILi1024ELb0ELb0EE8set_pValEim(%class.ap_private.0* %this, i32 %i, i64 %value) #5 align 2 {
entry:
  %this.addr = alloca %class.ap_private.0*, align 8
  %i.addr = alloca i32, align 4
  %value.addr = alloca i64, align 8
  store %class.ap_private.0* %this, %class.ap_private.0** %this.addr, align 8
  store i32 %i, i32* %i.addr, align 4
  store i64 %value, i64* %value.addr, align 8
  %this1 = load %class.ap_private.0** %this.addr
  %0 = load i64* %value.addr, align 8
  %1 = load i32* %i.addr, align 4
  %idxprom = sext i32 %1 to i64
  %pVal = getelementptr inbounds %class.ap_private.0* %this1, i32 0, i32 0
  %arrayidx = getelementptr inbounds [16 x i64]* %pVal, i32 0, i64 %idxprom
  store i64 %0, i64* %arrayidx, align 8
  ret void
}

; Function Attrs: inlinehint nounwind uwtable
define linkonce_odr void @_ZN10ap_privateILi1024ELb0ELb0EE15clearUnusedBitsEv(%class.ap_private.0* %this) #5 align 2 {
entry:
  %this.addr = alloca %class.ap_private.0*, align 8
  store %class.ap_private.0* %this, %class.ap_private.0** %this.addr, align 8
  %this1 = load %class.ap_private.0** %this.addr
  %pVal = getelementptr inbounds %class.ap_private.0* %this1, i32 0, i32 0
  %arrayidx = getelementptr inbounds [16 x i64]* %pVal, i32 0, i64 15
  %0 = load i64* %arrayidx, align 8
  %pVal2 = getelementptr inbounds %class.ap_private.0* %this1, i32 0, i32 0
  %arrayidx3 = getelementptr inbounds [16 x i64]* %pVal2, i32 0, i64 15
  store i64 %0, i64* %arrayidx3, align 8
  ret void
}

; Function Attrs: nobuiltin nounwind
declare void @_ZdaPv(i8*) #11

; Function Attrs: inlinehint nounwind uwtable
define internal i32 @_ZN14ap_private_opsL20CountLeadingZeros_32Ej(i32 %Value) #5 {
entry:
  %retval = alloca i32, align 4
  %Value.addr = alloca i32, align 4
  %Count = alloca i32, align 4
  store i32 %Value, i32* %Value.addr, align 4
  %0 = load i32* %Value.addr, align 4
  %cmp = icmp eq i32 %0, 0
  br i1 %cmp, label %if.then, label %if.end

if.then:                                          ; preds = %entry
  store i32 32, i32* %retval
  br label %return

if.end:                                           ; preds = %entry
  %1 = load i32* %Value.addr, align 4
  %2 = call i32 @llvm.ctlz.i32(i32 %1, i1 true)
  store i32 %2, i32* %Count, align 4
  %3 = load i32* %Count, align 4
  store i32 %3, i32* %retval
  br label %return

return:                                           ; preds = %if.end, %if.then
  %4 = load i32* %retval
  ret i32 %4
}

; Function Attrs: inlinehint nounwind uwtable
define linkonce_odr i32 @_ZN8AESL_std3minIjEET_S1_S1_(i32 %a, i32 %b) #5 {
entry:
  %a.addr = alloca i32, align 4
  %b.addr = alloca i32, align 4
  store i32 %a, i32* %a.addr, align 4
  store i32 %b, i32* %b.addr, align 4
  %0 = load i32* %a.addr, align 4
  %1 = load i32* %b.addr, align 4
  %cmp = icmp uge i32 %0, %1
  br i1 %cmp, label %cond.true, label %cond.false

cond.true:                                        ; preds = %entry
  %2 = load i32* %b.addr, align 4
  br label %cond.end

cond.false:                                       ; preds = %entry
  %3 = load i32* %a.addr, align 4
  br label %cond.end

cond.end:                                         ; preds = %cond.false, %cond.true
  %cond = phi i32 [ %2, %cond.true ], [ %3, %cond.false ]
  ret i32 %cond
}

; Function Attrs: nounwind readnone
declare i32 @llvm.ctlz.i32(i32, i1) #9

; Function Attrs: inlinehint nounwind uwtable
define linkonce_odr i32 @_ZN10ap_privateILi1024ELb0ELb0EE9whichWordEj(i32 %bitPosition) #5 align 2 {
entry:
  %bitPosition.addr = alloca i32, align 4
  store i32 %bitPosition, i32* %bitPosition.addr, align 4
  %0 = load i32* %bitPosition.addr, align 4
  %shr = lshr i32 %0, 6
  ret i32 %shr
}

; Function Attrs: inlinehint nounwind uwtable
define linkonce_odr void @_ZN10ap_privateILi1024ELb0ELb0EE10set_canaryEv(%class.ap_private.0* %this) #5 align 2 {
entry:
  %this.addr = alloca %class.ap_private.0*, align 8
  store %class.ap_private.0* %this, %class.ap_private.0** %this.addr, align 8
  %this1 = load %class.ap_private.0** %this.addr
  ret void
}

; Function Attrs: inlinehint nounwind uwtable
define linkonce_odr void @_ZN10ap_privateILi1024ELb0ELb0EE12check_canaryEv(%class.ap_private.0* %this) #5 align 2 {
entry:
  %this.addr = alloca %class.ap_private.0*, align 8
  store %class.ap_private.0* %this, %class.ap_private.0** %this.addr, align 8
  %this1 = load %class.ap_private.0** %this.addr
  ret void
}

; Function Attrs: inlinehint nounwind uwtable
define linkonce_odr i64* @_ZN10ap_privateILi1024ELb0ELb0EE8get_pValEv(%class.ap_private.0* %this) #5 align 2 {
entry:
  %this.addr = alloca %class.ap_private.0*, align 8
  store %class.ap_private.0* %this, %class.ap_private.0** %this.addr, align 8
  %this1 = load %class.ap_private.0** %this.addr
  %pVal = getelementptr inbounds %class.ap_private.0* %this1, i32 0, i32 0
  %arraydecay = getelementptr inbounds [16 x i64]* %pVal, i32 0, i32 0
  ret i64* %arraydecay
}

; Function Attrs: inlinehint nounwind uwtable
define linkonce_odr i64* @_ZNK10ap_privateILi1024ELb0ELb0EE8get_pValEv(%class.ap_private.0* %this) #5 align 2 {
entry:
  %this.addr = alloca %class.ap_private.0*, align 8
  store %class.ap_private.0* %this, %class.ap_private.0** %this.addr, align 8
  %this1 = load %class.ap_private.0** %this.addr
  %pVal = getelementptr inbounds %class.ap_private.0* %this1, i32 0, i32 0
  %arraydecay = getelementptr inbounds [16 x i64]* %pVal, i32 0, i32 0
  ret i64* %arraydecay
}

; Function Attrs: inlinehint uwtable
define linkonce_odr dereferenceable(128) %class.ap_private.0* @_ZN10ap_privateILi1024ELb0ELb0EEppEv(%class.ap_private.0* %this) #4 align 2 {
entry:
  %this.addr = alloca %class.ap_private.0*, align 8
  store %class.ap_private.0* %this, %class.ap_private.0** %this.addr, align 8
  %this1 = load %class.ap_private.0** %this.addr
  %pVal = getelementptr inbounds %class.ap_private.0* %this1, i32 0, i32 0
  %arraydecay = getelementptr inbounds [16 x i64]* %pVal, i32 0, i32 0
  %pVal2 = getelementptr inbounds %class.ap_private.0* %this1, i32 0, i32 0
  %arraydecay3 = getelementptr inbounds [16 x i64]* %pVal2, i32 0, i32 0
  %call = call zeroext i1 @_ZN14ap_private_opsL5add_1EPmS0_jm(i64* %arraydecay, i64* %arraydecay3, i32 16, i64 1)
  call void @_ZN10ap_privateILi1024ELb0ELb0EE15clearUnusedBitsEv(%class.ap_private.0* %this1)
  ret %class.ap_private.0* %this1
}

; Function Attrs: inlinehint nounwind uwtable
define internal zeroext i1 @_ZN14ap_private_opsL5add_1EPmS0_jm(i64* %dest, i64* %x, i32 %len, i64 %y) #5 {
entry:
  %dest.addr = alloca i64*, align 8
  %x.addr = alloca i64*, align 8
  %len.addr = alloca i32, align 4
  %y.addr = alloca i64, align 8
  %i = alloca i32, align 4
  store i64* %dest, i64** %dest.addr, align 8
  store i64* %x, i64** %x.addr, align 8
  store i32 %len, i32* %len.addr, align 4
  store i64 %y, i64* %y.addr, align 8
  store i32 0, i32* %i, align 4
  br label %for.cond

for.cond:                                         ; preds = %for.inc, %entry
  %0 = load i32* %i, align 4
  %1 = load i32* %len.addr, align 4
  %cmp = icmp ult i32 %0, %1
  br i1 %cmp, label %for.body, label %for.end

for.body:                                         ; preds = %for.cond
  %2 = load i64* %y.addr, align 8
  %3 = load i32* %i, align 4
  %idxprom = zext i32 %3 to i64
  %4 = load i64** %x.addr, align 8
  %arrayidx = getelementptr inbounds i64* %4, i64 %idxprom
  %5 = load i64* %arrayidx, align 8
  %add = add i64 %2, %5
  %6 = load i32* %i, align 4
  %idxprom1 = zext i32 %6 to i64
  %7 = load i64** %dest.addr, align 8
  %arrayidx2 = getelementptr inbounds i64* %7, i64 %idxprom1
  store i64 %add, i64* %arrayidx2, align 8
  %8 = load i32* %i, align 4
  %idxprom3 = zext i32 %8 to i64
  %9 = load i64** %dest.addr, align 8
  %arrayidx4 = getelementptr inbounds i64* %9, i64 %idxprom3
  %10 = load i64* %arrayidx4, align 8
  %11 = load i64* %y.addr, align 8
  %cmp5 = icmp ult i64 %10, %11
  br i1 %cmp5, label %if.then, label %if.else

if.then:                                          ; preds = %for.body
  store i64 1, i64* %y.addr, align 8
  br label %if.end

if.else:                                          ; preds = %for.body
  store i64 0, i64* %y.addr, align 8
  br label %for.end

if.end:                                           ; preds = %if.then
  br label %for.inc

for.inc:                                          ; preds = %if.end
  %12 = load i32* %i, align 4
  %inc = add i32 %12, 1
  store i32 %inc, i32* %i, align 4
  br label %for.cond

for.end:                                          ; preds = %if.else, %for.cond
  %13 = load i64* %y.addr, align 8
  %cmp6 = icmp ne i64 %13, 0
  ret i1 %cmp6
}

; Function Attrs: inlinehint uwtable
define linkonce_odr dereferenceable(128) %class.ap_private.0* @_ZN10ap_privateILi1024ELb0ELb0EEaSILi1024ELb1EEERS0_RKS_IXT_EXT0_EXleT_Li64EEE(%class.ap_private.0* %this, %class.ap_private* dereferenceable(128) %RHS) #4 align 2 {
entry:
  %this.addr = alloca %class.ap_private.0*, align 8
  %RHS.addr = alloca %class.ap_private*, align 8
  store %class.ap_private.0* %this, %class.ap_private.0** %this.addr, align 8
  store %class.ap_private* %RHS, %class.ap_private** %RHS.addr, align 8
  %this1 = load %class.ap_private.0** %this.addr
  %0 = load %class.ap_private** %RHS.addr, align 8
  call void @_ZN10ap_privateILi1024ELb0ELb0EE13cpSextOrTruncILi1024ELb1EEEvRKS_IXT_EXT0_EXleT_Li64EEE(%class.ap_private.0* %this1, %class.ap_private* dereferenceable(128) %0)
  call void @_ZN10ap_privateILi1024ELb0ELb0EE15clearUnusedBitsEv(%class.ap_private.0* %this1)
  ret %class.ap_private.0* %this1
}

; Function Attrs: inlinehint uwtable
define linkonce_odr void @_ZN10ap_privateILi1024ELb0ELb0EE13cpSextOrTruncILi1024ELb1EEEvRKS_IXT_EXT0_EXleT_Li64EEE(%class.ap_private.0* %this, %class.ap_private* dereferenceable(128) %that) #4 align 2 {
entry:
  %this.addr = alloca %class.ap_private.0*, align 8
  %that.addr = alloca %class.ap_private*, align 8
  %i = alloca i32, align 4
  store %class.ap_private.0* %this, %class.ap_private.0** %this.addr, align 8
  store %class.ap_private* %that, %class.ap_private** %that.addr, align 8
  %this1 = load %class.ap_private.0** %this.addr
  store i32 0, i32* %i, align 4
  br label %for.cond

for.cond:                                         ; preds = %for.inc, %entry
  %0 = load i32* %i, align 4
  %cmp = icmp slt i32 %0, 16
  br i1 %cmp, label %for.body, label %for.end

for.body:                                         ; preds = %for.cond
  %1 = load %class.ap_private** %that.addr, align 8
  %2 = load i32* %i, align 4
  %call = call i64 @_ZNK10ap_privateILi1024ELb1ELb0EE8get_pValEi(%class.ap_private* %1, i32 %2)
  %3 = load i32* %i, align 4
  %idxprom = sext i32 %3 to i64
  %pVal = getelementptr inbounds %class.ap_private.0* %this1, i32 0, i32 0
  %arrayidx = getelementptr inbounds [16 x i64]* %pVal, i32 0, i64 %idxprom
  store i64 %call, i64* %arrayidx, align 8
  br label %for.inc

for.inc:                                          ; preds = %for.body
  %4 = load i32* %i, align 4
  %inc = add nsw i32 %4, 1
  store i32 %inc, i32* %i, align 4
  br label %for.cond

for.end:                                          ; preds = %for.cond
  call void @_ZN10ap_privateILi1024ELb0ELb0EE15clearUnusedBitsEv(%class.ap_private.0* %this1)
  ret void
}

; Function Attrs: inlinehint nounwind uwtable
define linkonce_odr i64 @_ZNK10ap_privateILi1024ELb1ELb0EE8get_pValEi(%class.ap_private* %this, i32 %index) #5 align 2 {
entry:
  %this.addr = alloca %class.ap_private*, align 8
  %index.addr = alloca i32, align 4
  store %class.ap_private* %this, %class.ap_private** %this.addr, align 8
  store i32 %index, i32* %index.addr, align 4
  %this1 = load %class.ap_private** %this.addr
  %0 = load i32* %index.addr, align 4
  %idxprom = sext i32 %0 to i64
  %pVal = getelementptr inbounds %class.ap_private* %this1, i32 0, i32 0
  %arrayidx = getelementptr inbounds [16 x i64]* %pVal, i32 0, i64 %idxprom
  %1 = load i64* %arrayidx, align 8
  ret i64 %1
}

; Function Attrs: inlinehint uwtable
define linkonce_odr i32 @_ZNK10ap_privateILi1024ELb1ELb0EE13getActiveBitsEv(%class.ap_private* %this) #4 align 2 {
entry:
  %this.addr = alloca %class.ap_private*, align 8
  %bits = alloca i32, align 4
  store %class.ap_private* %this, %class.ap_private** %this.addr, align 8
  %this1 = load %class.ap_private** %this.addr
  %call = call i32 @_ZNK10ap_privateILi1024ELb1ELb0EE17countLeadingZerosEv(%class.ap_private* %this1)
  %sub = sub i32 1024, %call
  store i32 %sub, i32* %bits, align 4
  %0 = load i32* %bits, align 4
  %tobool = icmp ne i32 %0, 0
  br i1 %tobool, label %cond.true, label %cond.false

cond.true:                                        ; preds = %entry
  %1 = load i32* %bits, align 4
  br label %cond.end

cond.false:                                       ; preds = %entry
  br label %cond.end

cond.end:                                         ; preds = %cond.false, %cond.true
  %cond = phi i32 [ %1, %cond.true ], [ 1, %cond.false ]
  ret i32 %cond
}

; Function Attrs: inlinehint nounwind uwtable
define linkonce_odr i32 @_ZNK10ap_privateILi1024ELb1ELb0EE17countLeadingZerosEv(%class.ap_private* %this) #5 align 2 {
entry:
  %this.addr = alloca %class.ap_private*, align 8
  %Count = alloca i32, align 4
  %i = alloca i32, align 4
  store %class.ap_private* %this, %class.ap_private** %this.addr, align 8
  %this1 = load %class.ap_private** %this.addr
  %pVal = getelementptr inbounds %class.ap_private* %this1, i32 0, i32 0
  %arrayidx = getelementptr inbounds [16 x i64]* %pVal, i32 0, i64 15
  %0 = load i64* %arrayidx, align 8
  %call = call i32 @_ZN14ap_private_opsL20CountLeadingZeros_64Em(i64 %0)
  store i32 %call, i32* %Count, align 4
  %1 = load i32* %Count, align 4
  %cmp = icmp uge i32 %1, 0
  br i1 %cmp, label %if.then, label %if.end

if.then:                                          ; preds = %entry
  %2 = load i32* %Count, align 4
  %sub = sub i32 %2, 0
  store i32 %sub, i32* %Count, align 4
  br label %if.end

if.end:                                           ; preds = %if.then, %entry
  %pVal2 = getelementptr inbounds %class.ap_private* %this1, i32 0, i32 0
  %arrayidx3 = getelementptr inbounds [16 x i64]* %pVal2, i32 0, i64 15
  %3 = load i64* %arrayidx3, align 8
  %tobool = icmp ne i64 %3, 0
  br i1 %tobool, label %if.end18, label %if.then4

if.then4:                                         ; preds = %if.end
  store i32 15, i32* %i, align 4
  br label %for.cond

for.cond:                                         ; preds = %for.inc, %if.then4
  %4 = load i32* %i, align 4
  %tobool5 = icmp ne i32 %4, 0
  br i1 %tobool5, label %for.body, label %for.end

for.body:                                         ; preds = %for.cond
  %5 = load i32* %i, align 4
  %sub6 = sub nsw i32 %5, 1
  %idxprom = sext i32 %sub6 to i64
  %pVal7 = getelementptr inbounds %class.ap_private* %this1, i32 0, i32 0
  %arrayidx8 = getelementptr inbounds [16 x i64]* %pVal7, i32 0, i64 %idxprom
  %6 = load i64* %arrayidx8, align 8
  %tobool9 = icmp ne i64 %6, 0
  br i1 %tobool9, label %if.else, label %if.then10

if.then10:                                        ; preds = %for.body
  %7 = load i32* %Count, align 4
  %add = add i32 %7, 64
  store i32 %add, i32* %Count, align 4
  br label %if.end17

if.else:                                          ; preds = %for.body
  %8 = load i32* %i, align 4
  %sub11 = sub nsw i32 %8, 1
  %idxprom12 = sext i32 %sub11 to i64
  %pVal13 = getelementptr inbounds %class.ap_private* %this1, i32 0, i32 0
  %arrayidx14 = getelementptr inbounds [16 x i64]* %pVal13, i32 0, i64 %idxprom12
  %9 = load i64* %arrayidx14, align 8
  %call15 = call i32 @_ZN14ap_private_opsL20CountLeadingZeros_64Em(i64 %9)
  %10 = load i32* %Count, align 4
  %add16 = add i32 %10, %call15
  store i32 %add16, i32* %Count, align 4
  br label %for.end

if.end17:                                         ; preds = %if.then10
  br label %for.inc

for.inc:                                          ; preds = %if.end17
  %11 = load i32* %i, align 4
  %dec = add nsw i32 %11, -1
  store i32 %dec, i32* %i, align 4
  br label %for.cond

for.end:                                          ; preds = %if.else, %for.cond
  br label %if.end18

if.end18:                                         ; preds = %for.end, %if.end
  %12 = load i32* %Count, align 4
  ret i32 %12
}

; Function Attrs: inlinehint uwtable
define linkonce_odr void @_ZN10ap_privateILi1024ELb1ELb0EEC2EPKc(%class.ap_private* %this, i8* %val) unnamed_addr #4 align 2 {
entry:
  %this.addr = alloca %class.ap_private*, align 8
  %val.addr = alloca i8*, align 8
  %radix = alloca i32, align 4
  %str = alloca %"class.std::__cxx11::basic_string", align 8
  %ref.tmp = alloca %"class.std::__cxx11::basic_string", align 8
  %ref.tmp2 = alloca %"class.std::allocator", align 1
  %exn.slot = alloca i8*
  %ehselector.slot = alloca i32
  %pos = alloca i64, align 8
  %ref.tmp5 = alloca %"class.std::__cxx11::basic_string", align 8
  %ap_private_val = alloca %class.ap_private, align 8
  store %class.ap_private* %this, %class.ap_private** %this.addr, align 8
  store i8* %val, i8** %val.addr, align 8
  %this1 = load %class.ap_private** %this.addr
  call void @_ZN10ap_privateILi1024ELb1ELb0EE10set_canaryEv(%class.ap_private* %this1)
  store i32 10, i32* %radix, align 4
  %0 = load i8** %val.addr, align 8
  call void @_ZNSaIcEC1Ev(%"class.std::allocator"* %ref.tmp2) #2
  invoke void @_ZNSt7__cxx1112basic_stringIcSt11char_traitsIcESaIcEEC1EPKcRKS3_(%"class.std::__cxx11::basic_string"* %ref.tmp, i8* %0, %"class.std::allocator"* dereferenceable(1) %ref.tmp2)
          to label %invoke.cont unwind label %lpad

invoke.cont:                                      ; preds = %entry
  invoke void @_ZN14ap_private_opsL11parseStringERKNSt7__cxx1112basic_stringIcSt11char_traitsIcESaIcEEERi(%"class.std::__cxx11::basic_string"* sret %str, %"class.std::__cxx11::basic_string"* dereferenceable(32) %ref.tmp, i32* dereferenceable(4) %radix)
          to label %invoke.cont4 unwind label %lpad3

invoke.cont4:                                     ; preds = %invoke.cont
  call void @_ZNSt7__cxx1112basic_stringIcSt11char_traitsIcESaIcEED1Ev(%"class.std::__cxx11::basic_string"* %ref.tmp) #2
  call void @_ZNSaIcED1Ev(%"class.std::allocator"* %ref.tmp2) #2
  %call = call i64 @_ZNKSt7__cxx1112basic_stringIcSt11char_traitsIcESaIcEE4findEcm(%"class.std::__cxx11::basic_string"* %str, i8 signext 46, i64 0) #2
  store i64 %call, i64* %pos, align 8
  %1 = load i64* %pos, align 8
  %cmp = icmp ne i64 %1, -1
  br i1 %cmp, label %if.then, label %if.end

if.then:                                          ; preds = %invoke.cont4
  %2 = load i64* %pos, align 8
  invoke void @_ZNKSt7__cxx1112basic_stringIcSt11char_traitsIcESaIcEE6substrEmm(%"class.std::__cxx11::basic_string"* sret %ref.tmp5, %"class.std::__cxx11::basic_string"* %str, i64 %2, i64 -1)
          to label %invoke.cont7 unwind label %lpad6

invoke.cont7:                                     ; preds = %if.then
  %call8 = call dereferenceable(32) %"class.std::__cxx11::basic_string"* @_ZNSt7__cxx1112basic_stringIcSt11char_traitsIcESaIcEEaSEOS4_(%"class.std::__cxx11::basic_string"* %str, %"class.std::__cxx11::basic_string"* dereferenceable(32) %ref.tmp5) #2
  call void @_ZNSt7__cxx1112basic_stringIcSt11char_traitsIcESaIcEED1Ev(%"class.std::__cxx11::basic_string"* %ref.tmp5) #2
  br label %if.end

lpad:                                             ; preds = %entry
  %3 = landingpad { i8*, i32 } personality i8* bitcast (i32 (...)* @__gxx_personality_v0 to i8*)
          cleanup
  %4 = extractvalue { i8*, i32 } %3, 0
  store i8* %4, i8** %exn.slot
  %5 = extractvalue { i8*, i32 } %3, 1
  store i32 %5, i32* %ehselector.slot
  br label %ehcleanup

lpad3:                                            ; preds = %invoke.cont
  %6 = landingpad { i8*, i32 } personality i8* bitcast (i32 (...)* @__gxx_personality_v0 to i8*)
          cleanup
  %7 = extractvalue { i8*, i32 } %6, 0
  store i8* %7, i8** %exn.slot
  %8 = extractvalue { i8*, i32 } %6, 1
  store i32 %8, i32* %ehselector.slot
  call void @_ZNSt7__cxx1112basic_stringIcSt11char_traitsIcESaIcEED1Ev(%"class.std::__cxx11::basic_string"* %ref.tmp) #2
  br label %ehcleanup

ehcleanup:                                        ; preds = %lpad3, %lpad
  call void @_ZNSaIcED1Ev(%"class.std::allocator"* %ref.tmp2) #2
  br label %eh.resume

lpad6:                                            ; preds = %if.end, %if.then
  %9 = landingpad { i8*, i32 } personality i8* bitcast (i32 (...)* @__gxx_personality_v0 to i8*)
          cleanup
  %10 = extractvalue { i8*, i32 } %9, 0
  store i8* %10, i8** %exn.slot
  %11 = extractvalue { i8*, i32 } %9, 1
  store i32 %11, i32* %ehselector.slot
  br label %ehcleanup16

if.end:                                           ; preds = %invoke.cont7, %invoke.cont4
  %12 = load i32* %radix, align 4
  %conv = trunc i32 %12 to i8
  invoke void @_ZN10ap_privateILi1024ELb1ELb0EEC2ERKNSt7__cxx1112basic_stringIcSt11char_traitsIcESaIcEEEh(%class.ap_private* %ap_private_val, %"class.std::__cxx11::basic_string"* dereferenceable(32) %str, i8 zeroext %conv)
          to label %invoke.cont9 unwind label %lpad6

invoke.cont9:                                     ; preds = %if.end
  %call12 = invoke dereferenceable(128) %class.ap_private* @_ZN10ap_privateILi1024ELb1ELb0EEaSERKS0_(%class.ap_private* %this1, %class.ap_private* dereferenceable(128) %ap_private_val)
          to label %invoke.cont11 unwind label %lpad10

invoke.cont11:                                    ; preds = %invoke.cont9
  invoke void @_ZN10ap_privateILi1024ELb1ELb0EE6reportEv(%class.ap_private* %this1)
          to label %invoke.cont13 unwind label %lpad10

invoke.cont13:                                    ; preds = %invoke.cont11
  invoke void @_ZN10ap_privateILi1024ELb1ELb0EE12check_canaryEv(%class.ap_private* %this1)
          to label %invoke.cont14 unwind label %lpad10

invoke.cont14:                                    ; preds = %invoke.cont13
  call void @_ZN10ap_privateILi1024ELb1ELb0EED2Ev(%class.ap_private* %ap_private_val) #2
  call void @_ZNSt7__cxx1112basic_stringIcSt11char_traitsIcESaIcEED1Ev(%"class.std::__cxx11::basic_string"* %str) #2
  ret void

lpad10:                                           ; preds = %invoke.cont13, %invoke.cont11, %invoke.cont9
  %13 = landingpad { i8*, i32 } personality i8* bitcast (i32 (...)* @__gxx_personality_v0 to i8*)
          cleanup
  %14 = extractvalue { i8*, i32 } %13, 0
  store i8* %14, i8** %exn.slot
  %15 = extractvalue { i8*, i32 } %13, 1
  store i32 %15, i32* %ehselector.slot
  call void @_ZN10ap_privateILi1024ELb1ELb0EED2Ev(%class.ap_private* %ap_private_val) #2
  br label %ehcleanup16

ehcleanup16:                                      ; preds = %lpad10, %lpad6
  call void @_ZNSt7__cxx1112basic_stringIcSt11char_traitsIcESaIcEED1Ev(%"class.std::__cxx11::basic_string"* %str) #2
  br label %eh.resume

eh.resume:                                        ; preds = %ehcleanup16, %ehcleanup
  %exn = load i8** %exn.slot
  %sel = load i32* %ehselector.slot
  %lpad.val = insertvalue { i8*, i32 } undef, i8* %exn, 0
  %lpad.val17 = insertvalue { i8*, i32 } %lpad.val, i32 %sel, 1
  resume { i8*, i32 } %lpad.val17
}

; Function Attrs: inlinehint nounwind uwtable
define linkonce_odr void @_ZN10ap_privateILi1024ELb1ELb0EE10set_canaryEv(%class.ap_private* %this) #5 align 2 {
entry:
  %this.addr = alloca %class.ap_private*, align 8
  store %class.ap_private* %this, %class.ap_private** %this.addr, align 8
  %this1 = load %class.ap_private** %this.addr
  ret void
}

; Function Attrs: inlinehint uwtable
define internal void @_ZN14ap_private_opsL11parseStringERKNSt7__cxx1112basic_stringIcSt11char_traitsIcESaIcEEERi(%"class.std::__cxx11::basic_string"* noalias sret %agg.result, %"class.std::__cxx11::basic_string"* dereferenceable(32) %input, i32* dereferenceable(4) %radix) #4 {
entry:
  %input.addr = alloca %"class.std::__cxx11::basic_string"*, align 8
  %radix.addr = alloca i32*, align 8
  %len = alloca i64, align 8
  %startPos = alloca i64, align 8
  %val = alloca %"class.std::__cxx11::basic_string", align 8
  %cleanup.dest.slot = alloca i32
  %isNegative = alloca i8, align 1
  %ans = alloca %"class.std::__cxx11::basic_string", align 8
  %exn.slot = alloca i8*
  %ehselector.slot = alloca i32
  %ref.tmp = alloca %"class.std::__cxx11::basic_string", align 8
  %ref.tmp41 = alloca %"class.std::__cxx11::basic_string", align 8
  %cleanup.cond = alloca i1
  %ref.tmp51 = alloca %"class.std::__cxx11::basic_string", align 8
  %ref.tmp57 = alloca %"class.std::__cxx11::basic_string", align 8
  %cleanup.cond59 = alloca i1
  %ref.tmp76 = alloca %"class.std::__cxx11::basic_string", align 8
  %ref.tmp82 = alloca %"class.std::__cxx11::basic_string", align 8
  %cleanup.cond84 = alloca i1
  %exp = alloca i32, align 4
  %expPos = alloca i64, align 8
  %has_exponent = alloca i8, align 1
  %ref.tmp110 = alloca %"class.std::__cxx11::basic_string", align 8
  %iss = alloca %"class.std::__cxx11::basic_istringstream", align 8
  %ref.tmp118 = alloca %"class.std::__cxx11::basic_string", align 8
  %expPos132 = alloca i64, align 8
  %has_exponent134 = alloca i8, align 1
  %i = alloca i64, align 8
  %ref.tmp146 = alloca %"class.std::__cxx11::basic_string", align 8
  %ref.tmp157 = alloca %"class.std::__cxx11::basic_string", align 8
  %iss175 = alloca %"class.std::__cxx11::basic_istringstream", align 8
  %ref.tmp176 = alloca %"class.std::__cxx11::basic_string", align 8
  %decPos = alloca i64, align 8
  %i204 = alloca i32, align 4
  %nrvo = alloca i1
  %ref.tmp250 = alloca %"class.std::allocator", align 1
  %i263 = alloca i32, align 4
  %i277 = alloca i64, align 8
  %i302 = alloca i64, align 8
  %i323 = alloca i32, align 4
  store %"class.std::__cxx11::basic_string"* %input, %"class.std::__cxx11::basic_string"** %input.addr, align 8
  store i32* %radix, i32** %radix.addr, align 8
  %0 = load %"class.std::__cxx11::basic_string"** %input.addr, align 8
  %call = call i64 @_ZNKSt7__cxx1112basic_stringIcSt11char_traitsIcESaIcEE6lengthEv(%"class.std::__cxx11::basic_string"* %0) #2
  store i64 %call, i64* %len, align 8
  %1 = load i64* %len, align 8
  %cmp = icmp eq i64 %1, 0
  br i1 %cmp, label %if.then, label %if.end

if.then:                                          ; preds = %entry
  %2 = load %"class.std::__cxx11::basic_string"** %input.addr, align 8
  call void @_ZNSt7__cxx1112basic_stringIcSt11char_traitsIcESaIcEEC1ERKS4_(%"class.std::__cxx11::basic_string"* %agg.result, %"class.std::__cxx11::basic_string"* dereferenceable(32) %2)
  br label %return

if.end:                                           ; preds = %entry
  store i64 0, i64* %startPos, align 8
  br label %while.cond

while.cond:                                       ; preds = %while.body, %if.end
  %3 = load %"class.std::__cxx11::basic_string"** %input.addr, align 8
  %4 = load i64* %startPos, align 8
  %call1 = call dereferenceable(1) i8* @_ZNKSt7__cxx1112basic_stringIcSt11char_traitsIcESaIcEEixEm(%"class.std::__cxx11::basic_string"* %3, i64 %4) #2
  %5 = load i8* %call1
  %conv = sext i8 %5 to i32
  %cmp2 = icmp eq i32 %conv, 32
  br i1 %cmp2, label %land.rhs, label %land.end

land.rhs:                                         ; preds = %while.cond
  %6 = load i64* %startPos, align 8
  %7 = load i64* %len, align 8
  %cmp3 = icmp ult i64 %6, %7
  br label %land.end

land.end:                                         ; preds = %land.rhs, %while.cond
  %8 = phi i1 [ false, %while.cond ], [ %cmp3, %land.rhs ]
  br i1 %8, label %while.body, label %while.end

while.body:                                       ; preds = %land.end
  %9 = load i64* %startPos, align 8
  %inc = add i64 %9, 1
  store i64 %inc, i64* %startPos, align 8
  br label %while.cond

while.end:                                        ; preds = %land.end
  br label %while.cond4

while.cond4:                                      ; preds = %while.body11, %while.end
  %10 = load %"class.std::__cxx11::basic_string"** %input.addr, align 8
  %11 = load i64* %len, align 8
  %sub = sub i64 %11, 1
  %call5 = call dereferenceable(1) i8* @_ZNKSt7__cxx1112basic_stringIcSt11char_traitsIcESaIcEEixEm(%"class.std::__cxx11::basic_string"* %10, i64 %sub) #2
  %12 = load i8* %call5
  %conv6 = sext i8 %12 to i32
  %cmp7 = icmp eq i32 %conv6, 32
  br i1 %cmp7, label %land.rhs8, label %land.end10

land.rhs8:                                        ; preds = %while.cond4
  %13 = load i64* %startPos, align 8
  %14 = load i64* %len, align 8
  %cmp9 = icmp ult i64 %13, %14
  br label %land.end10

land.end10:                                       ; preds = %land.rhs8, %while.cond4
  %15 = phi i1 [ false, %while.cond4 ], [ %cmp9, %land.rhs8 ]
  br i1 %15, label %while.body11, label %while.end12

while.body11:                                     ; preds = %land.end10
  %16 = load i64* %len, align 8
  %dec = add i64 %16, -1
  store i64 %dec, i64* %len, align 8
  br label %while.cond4

while.end12:                                      ; preds = %land.end10
  %17 = load %"class.std::__cxx11::basic_string"** %input.addr, align 8
  %18 = load i64* %startPos, align 8
  %19 = load i64* %len, align 8
  %20 = load i64* %startPos, align 8
  %sub13 = sub i64 %19, %20
  call void @_ZNKSt7__cxx1112basic_stringIcSt11char_traitsIcESaIcEE6substrEmm(%"class.std::__cxx11::basic_string"* sret %val, %"class.std::__cxx11::basic_string"* %17, i64 %18, i64 %sub13)
  %call14 = call i64 @_ZNKSt7__cxx1112basic_stringIcSt11char_traitsIcESaIcEE6lengthEv(%"class.std::__cxx11::basic_string"* %val) #2
  store i64 %call14, i64* %len, align 8
  store i64 0, i64* %startPos, align 8
  %21 = load i64* %len, align 8
  %cmp15 = icmp ult i64 %21, 2
  br i1 %cmp15, label %if.then16, label %if.end17

if.then16:                                        ; preds = %while.end12
  call void @_ZNSt7__cxx1112basic_stringIcSt11char_traitsIcESaIcEEC1EOS4_(%"class.std::__cxx11::basic_string"* %agg.result, %"class.std::__cxx11::basic_string"* dereferenceable(32) %val) #2
  store i32 1, i32* %cleanup.dest.slot
  br label %cleanup346

if.end17:                                         ; preds = %while.end12
  store i8 0, i8* %isNegative, align 1
  call void @_ZNSt7__cxx1112basic_stringIcSt11char_traitsIcESaIcEEC1Ev(%"class.std::__cxx11::basic_string"* %ans) #2
  %call18 = invoke dereferenceable(1) i8* @_ZNSt7__cxx1112basic_stringIcSt11char_traitsIcESaIcEEixEm(%"class.std::__cxx11::basic_string"* %val, i64 0)
          to label %invoke.cont unwind label %lpad

invoke.cont:                                      ; preds = %if.end17
  %22 = load i8* %call18
  %conv19 = sext i8 %22 to i32
  %cmp20 = icmp eq i32 %conv19, 45
  br i1 %cmp20, label %if.then21, label %if.else

if.then21:                                        ; preds = %invoke.cont
  %call23 = invoke dereferenceable(32) %"class.std::__cxx11::basic_string"* @_ZNSt7__cxx1112basic_stringIcSt11char_traitsIcESaIcEEaSEPKc(%"class.std::__cxx11::basic_string"* %ans, i8* getelementptr inbounds ([2 x i8]* @.str19, i32 0, i32 0))
          to label %invoke.cont22 unwind label %lpad

invoke.cont22:                                    ; preds = %if.then21
  %23 = load i64* %startPos, align 8
  %inc24 = add i64 %23, 1
  store i64 %inc24, i64* %startPos, align 8
  store i8 1, i8* %isNegative, align 1
  br label %if.end32

lpad:                                             ; preds = %if.end340, %invoke.cont332, %for.body329, %if.then319, %invoke.cont309, %for.body307, %for.body237, %for.body226, %invoke.cont214, %for.body211, %if.then174, %invoke.cont166, %if.else165, %invoke.cont158, %if.then156, %invoke.cont147, %if.then145, %if.then117, %if.end109, %if.end75, %if.else50, %if.end36, %if.else, %if.then21, %if.end17
  %24 = landingpad { i8*, i32 } personality i8* bitcast (i32 (...)* @__gxx_personality_v0 to i8*)
          cleanup
  %25 = extractvalue { i8*, i32 } %24, 0
  store i8* %25, i8** %exn.slot
  %26 = extractvalue { i8*, i32 } %24, 1
  store i32 %26, i32* %ehselector.slot
  br label %ehcleanup345

if.else:                                          ; preds = %invoke.cont
  %call26 = invoke dereferenceable(1) i8* @_ZNSt7__cxx1112basic_stringIcSt11char_traitsIcESaIcEEixEm(%"class.std::__cxx11::basic_string"* %val, i64 0)
          to label %invoke.cont25 unwind label %lpad

invoke.cont25:                                    ; preds = %if.else
  %27 = load i8* %call26
  %conv27 = sext i8 %27 to i32
  %cmp28 = icmp eq i32 %conv27, 43
  br i1 %cmp28, label %if.then29, label %if.end31

if.then29:                                        ; preds = %invoke.cont25
  %28 = load i64* %startPos, align 8
  %inc30 = add i64 %28, 1
  store i64 %inc30, i64* %startPos, align 8
  br label %if.end31

if.end31:                                         ; preds = %if.then29, %invoke.cont25
  br label %if.end32

if.end32:                                         ; preds = %if.end31, %invoke.cont22
  %29 = load i64* %len, align 8
  %30 = load i64* %startPos, align 8
  %sub33 = sub i64 %29, %30
  %cmp34 = icmp ult i64 %sub33, 2
  br i1 %cmp34, label %if.then35, label %if.end36

if.then35:                                        ; preds = %if.end32
  call void @_ZNSt7__cxx1112basic_stringIcSt11char_traitsIcESaIcEEC1EOS4_(%"class.std::__cxx11::basic_string"* %agg.result, %"class.std::__cxx11::basic_string"* dereferenceable(32) %val) #2
  store i32 1, i32* %cleanup.dest.slot
  br label %cleanup

if.end36:                                         ; preds = %if.end32
  %31 = load i64* %startPos, align 8
  store i1 false, i1* %cleanup.cond
  invoke void @_ZNKSt7__cxx1112basic_stringIcSt11char_traitsIcESaIcEE6substrEmm(%"class.std::__cxx11::basic_string"* sret %ref.tmp, %"class.std::__cxx11::basic_string"* %val, i64 %31, i64 2)
          to label %invoke.cont37 unwind label %lpad

invoke.cont37:                                    ; preds = %if.end36
  %call40 = invoke zeroext i1 @_ZSteqIcSt11char_traitsIcESaIcEEbRKNSt7__cxx1112basic_stringIT_T0_T1_EEPKS5_(%"class.std::__cxx11::basic_string"* dereferenceable(32) %ref.tmp, i8* getelementptr inbounds ([3 x i8]* @.str22, i32 0, i32 0))
          to label %invoke.cont39 unwind label %lpad38

invoke.cont39:                                    ; preds = %invoke.cont37
  br i1 %call40, label %lor.end, label %lor.rhs

lor.rhs:                                          ; preds = %invoke.cont39
  %32 = load i64* %startPos, align 8
  invoke void @_ZNKSt7__cxx1112basic_stringIcSt11char_traitsIcESaIcEE6substrEmm(%"class.std::__cxx11::basic_string"* sret %ref.tmp41, %"class.std::__cxx11::basic_string"* %val, i64 %32, i64 2)
          to label %invoke.cont42 unwind label %lpad38

invoke.cont42:                                    ; preds = %lor.rhs
  store i1 true, i1* %cleanup.cond
  %call45 = invoke zeroext i1 @_ZSteqIcSt11char_traitsIcESaIcEEbRKNSt7__cxx1112basic_stringIT_T0_T1_EEPKS5_(%"class.std::__cxx11::basic_string"* dereferenceable(32) %ref.tmp41, i8* getelementptr inbounds ([3 x i8]* @.str49, i32 0, i32 0))
          to label %invoke.cont44 unwind label %lpad43

invoke.cont44:                                    ; preds = %invoke.cont42
  br label %lor.end

lor.end:                                          ; preds = %invoke.cont44, %invoke.cont39
  %33 = phi i1 [ true, %invoke.cont39 ], [ %call45, %invoke.cont44 ]
  %cleanup.is_active = load i1* %cleanup.cond
  br i1 %cleanup.is_active, label %cleanup.action, label %cleanup.done

cleanup.action:                                   ; preds = %lor.end
  call void @_ZNSt7__cxx1112basic_stringIcSt11char_traitsIcESaIcEED1Ev(%"class.std::__cxx11::basic_string"* %ref.tmp41) #2
  br label %cleanup.done

cleanup.done:                                     ; preds = %cleanup.action, %lor.end
  call void @_ZNSt7__cxx1112basic_stringIcSt11char_traitsIcESaIcEED1Ev(%"class.std::__cxx11::basic_string"* %ref.tmp) #2
  br i1 %33, label %if.then49, label %if.else50

if.then49:                                        ; preds = %cleanup.done
  %34 = load i32** %radix.addr, align 8
  store i32 16, i32* %34, align 4
  %35 = load i64* %startPos, align 8
  %add = add i64 %35, 2
  store i64 %add, i64* %startPos, align 8
  br label %if.end75

lpad38:                                           ; preds = %lor.rhs, %invoke.cont37
  %36 = landingpad { i8*, i32 } personality i8* bitcast (i32 (...)* @__gxx_personality_v0 to i8*)
          cleanup
  %37 = extractvalue { i8*, i32 } %36, 0
  store i8* %37, i8** %exn.slot
  %38 = extractvalue { i8*, i32 } %36, 1
  store i32 %38, i32* %ehselector.slot
  br label %ehcleanup

lpad43:                                           ; preds = %invoke.cont42
  %39 = landingpad { i8*, i32 } personality i8* bitcast (i32 (...)* @__gxx_personality_v0 to i8*)
          cleanup
  %40 = extractvalue { i8*, i32 } %39, 0
  store i8* %40, i8** %exn.slot
  %41 = extractvalue { i8*, i32 } %39, 1
  store i32 %41, i32* %ehselector.slot
  %cleanup.is_active46 = load i1* %cleanup.cond
  br i1 %cleanup.is_active46, label %cleanup.action47, label %cleanup.done48

cleanup.action47:                                 ; preds = %lpad43
  call void @_ZNSt7__cxx1112basic_stringIcSt11char_traitsIcESaIcEED1Ev(%"class.std::__cxx11::basic_string"* %ref.tmp41) #2
  br label %cleanup.done48

cleanup.done48:                                   ; preds = %cleanup.action47, %lpad43
  br label %ehcleanup

ehcleanup:                                        ; preds = %cleanup.done48, %lpad38
  call void @_ZNSt7__cxx1112basic_stringIcSt11char_traitsIcESaIcEED1Ev(%"class.std::__cxx11::basic_string"* %ref.tmp) #2
  br label %ehcleanup345

if.else50:                                        ; preds = %cleanup.done
  %42 = load i64* %startPos, align 8
  store i1 false, i1* %cleanup.cond59
  invoke void @_ZNKSt7__cxx1112basic_stringIcSt11char_traitsIcESaIcEE6substrEmm(%"class.std::__cxx11::basic_string"* sret %ref.tmp51, %"class.std::__cxx11::basic_string"* %val, i64 %42, i64 2)
          to label %invoke.cont52 unwind label %lpad

invoke.cont52:                                    ; preds = %if.else50
  %call55 = invoke zeroext i1 @_ZSteqIcSt11char_traitsIcESaIcEEbRKNSt7__cxx1112basic_stringIT_T0_T1_EEPKS5_(%"class.std::__cxx11::basic_string"* dereferenceable(32) %ref.tmp51, i8* getelementptr inbounds ([3 x i8]* @.str20, i32 0, i32 0))
          to label %invoke.cont54 unwind label %lpad53

invoke.cont54:                                    ; preds = %invoke.cont52
  br i1 %call55, label %lor.end63, label %lor.rhs56

lor.rhs56:                                        ; preds = %invoke.cont54
  %43 = load i64* %startPos, align 8
  invoke void @_ZNKSt7__cxx1112basic_stringIcSt11char_traitsIcESaIcEE6substrEmm(%"class.std::__cxx11::basic_string"* sret %ref.tmp57, %"class.std::__cxx11::basic_string"* %val, i64 %43, i64 2)
          to label %invoke.cont58 unwind label %lpad53

invoke.cont58:                                    ; preds = %lor.rhs56
  store i1 true, i1* %cleanup.cond59
  %call62 = invoke zeroext i1 @_ZSteqIcSt11char_traitsIcESaIcEEbRKNSt7__cxx1112basic_stringIT_T0_T1_EEPKS5_(%"class.std::__cxx11::basic_string"* dereferenceable(32) %ref.tmp57, i8* getelementptr inbounds ([3 x i8]* @.str50, i32 0, i32 0))
          to label %invoke.cont61 unwind label %lpad60

invoke.cont61:                                    ; preds = %invoke.cont58
  br label %lor.end63

lor.end63:                                        ; preds = %invoke.cont61, %invoke.cont54
  %44 = phi i1 [ true, %invoke.cont54 ], [ %call62, %invoke.cont61 ]
  %cleanup.is_active64 = load i1* %cleanup.cond59
  br i1 %cleanup.is_active64, label %cleanup.action65, label %cleanup.done66

cleanup.action65:                                 ; preds = %lor.end63
  call void @_ZNSt7__cxx1112basic_stringIcSt11char_traitsIcESaIcEED1Ev(%"class.std::__cxx11::basic_string"* %ref.tmp57) #2
  br label %cleanup.done66

cleanup.done66:                                   ; preds = %cleanup.action65, %lor.end63
  call void @_ZNSt7__cxx1112basic_stringIcSt11char_traitsIcESaIcEED1Ev(%"class.std::__cxx11::basic_string"* %ref.tmp51) #2
  br i1 %44, label %if.then72, label %if.end74

if.then72:                                        ; preds = %cleanup.done66
  %45 = load i32** %radix.addr, align 8
  store i32 2, i32* %45, align 4
  %46 = load i64* %startPos, align 8
  %add73 = add i64 %46, 2
  store i64 %add73, i64* %startPos, align 8
  br label %if.end74

lpad53:                                           ; preds = %lor.rhs56, %invoke.cont52
  %47 = landingpad { i8*, i32 } personality i8* bitcast (i32 (...)* @__gxx_personality_v0 to i8*)
          cleanup
  %48 = extractvalue { i8*, i32 } %47, 0
  store i8* %48, i8** %exn.slot
  %49 = extractvalue { i8*, i32 } %47, 1
  store i32 %49, i32* %ehselector.slot
  br label %ehcleanup71

lpad60:                                           ; preds = %invoke.cont58
  %50 = landingpad { i8*, i32 } personality i8* bitcast (i32 (...)* @__gxx_personality_v0 to i8*)
          cleanup
  %51 = extractvalue { i8*, i32 } %50, 0
  store i8* %51, i8** %exn.slot
  %52 = extractvalue { i8*, i32 } %50, 1
  store i32 %52, i32* %ehselector.slot
  %cleanup.is_active68 = load i1* %cleanup.cond59
  br i1 %cleanup.is_active68, label %cleanup.action69, label %cleanup.done70

cleanup.action69:                                 ; preds = %lpad60
  call void @_ZNSt7__cxx1112basic_stringIcSt11char_traitsIcESaIcEED1Ev(%"class.std::__cxx11::basic_string"* %ref.tmp57) #2
  br label %cleanup.done70

cleanup.done70:                                   ; preds = %cleanup.action69, %lpad60
  br label %ehcleanup71

ehcleanup71:                                      ; preds = %cleanup.done70, %lpad53
  call void @_ZNSt7__cxx1112basic_stringIcSt11char_traitsIcESaIcEED1Ev(%"class.std::__cxx11::basic_string"* %ref.tmp51) #2
  br label %ehcleanup345

if.end74:                                         ; preds = %if.then72, %cleanup.done66
  br label %if.end75

if.end75:                                         ; preds = %if.end74, %if.then49
  %53 = load i64* %startPos, align 8
  store i1 false, i1* %cleanup.cond84
  invoke void @_ZNKSt7__cxx1112basic_stringIcSt11char_traitsIcESaIcEE6substrEmm(%"class.std::__cxx11::basic_string"* sret %ref.tmp76, %"class.std::__cxx11::basic_string"* %val, i64 %53, i64 2)
          to label %invoke.cont77 unwind label %lpad

invoke.cont77:                                    ; preds = %if.end75
  %call80 = invoke zeroext i1 @_ZSteqIcSt11char_traitsIcESaIcEEbRKNSt7__cxx1112basic_stringIT_T0_T1_EEPKS5_(%"class.std::__cxx11::basic_string"* dereferenceable(32) %ref.tmp76, i8* getelementptr inbounds ([3 x i8]* @.str21, i32 0, i32 0))
          to label %invoke.cont79 unwind label %lpad78

invoke.cont79:                                    ; preds = %invoke.cont77
  br i1 %call80, label %lor.end88, label %lor.rhs81

lor.rhs81:                                        ; preds = %invoke.cont79
  %54 = load i64* %startPos, align 8
  invoke void @_ZNKSt7__cxx1112basic_stringIcSt11char_traitsIcESaIcEE6substrEmm(%"class.std::__cxx11::basic_string"* sret %ref.tmp82, %"class.std::__cxx11::basic_string"* %val, i64 %54, i64 2)
          to label %invoke.cont83 unwind label %lpad78

invoke.cont83:                                    ; preds = %lor.rhs81
  store i1 true, i1* %cleanup.cond84
  %call87 = invoke zeroext i1 @_ZSteqIcSt11char_traitsIcESaIcEEbRKNSt7__cxx1112basic_stringIT_T0_T1_EEPKS5_(%"class.std::__cxx11::basic_string"* dereferenceable(32) %ref.tmp82, i8* getelementptr inbounds ([3 x i8]* @.str51, i32 0, i32 0))
          to label %invoke.cont86 unwind label %lpad85

invoke.cont86:                                    ; preds = %invoke.cont83
  br label %lor.end88

lor.end88:                                        ; preds = %invoke.cont86, %invoke.cont79
  %55 = phi i1 [ true, %invoke.cont79 ], [ %call87, %invoke.cont86 ]
  %cleanup.is_active89 = load i1* %cleanup.cond84
  br i1 %cleanup.is_active89, label %cleanup.action90, label %cleanup.done91

cleanup.action90:                                 ; preds = %lor.end88
  call void @_ZNSt7__cxx1112basic_stringIcSt11char_traitsIcESaIcEED1Ev(%"class.std::__cxx11::basic_string"* %ref.tmp82) #2
  br label %cleanup.done91

cleanup.done91:                                   ; preds = %cleanup.action90, %lor.end88
  call void @_ZNSt7__cxx1112basic_stringIcSt11char_traitsIcESaIcEED1Ev(%"class.std::__cxx11::basic_string"* %ref.tmp76) #2
  br i1 %55, label %if.then97, label %if.end99

if.then97:                                        ; preds = %cleanup.done91
  %56 = load i32** %radix.addr, align 8
  store i32 8, i32* %56, align 4
  %57 = load i64* %startPos, align 8
  %add98 = add i64 %57, 2
  store i64 %add98, i64* %startPos, align 8
  br label %if.end99

lpad78:                                           ; preds = %lor.rhs81, %invoke.cont77
  %58 = landingpad { i8*, i32 } personality i8* bitcast (i32 (...)* @__gxx_personality_v0 to i8*)
          cleanup
  %59 = extractvalue { i8*, i32 } %58, 0
  store i8* %59, i8** %exn.slot
  %60 = extractvalue { i8*, i32 } %58, 1
  store i32 %60, i32* %ehselector.slot
  br label %ehcleanup96

lpad85:                                           ; preds = %invoke.cont83
  %61 = landingpad { i8*, i32 } personality i8* bitcast (i32 (...)* @__gxx_personality_v0 to i8*)
          cleanup
  %62 = extractvalue { i8*, i32 } %61, 0
  store i8* %62, i8** %exn.slot
  %63 = extractvalue { i8*, i32 } %61, 1
  store i32 %63, i32* %ehselector.slot
  %cleanup.is_active93 = load i1* %cleanup.cond84
  br i1 %cleanup.is_active93, label %cleanup.action94, label %cleanup.done95

cleanup.action94:                                 ; preds = %lpad85
  call void @_ZNSt7__cxx1112basic_stringIcSt11char_traitsIcESaIcEED1Ev(%"class.std::__cxx11::basic_string"* %ref.tmp82) #2
  br label %cleanup.done95

cleanup.done95:                                   ; preds = %cleanup.action94, %lpad85
  br label %ehcleanup96

ehcleanup96:                                      ; preds = %cleanup.done95, %lpad78
  call void @_ZNSt7__cxx1112basic_stringIcSt11char_traitsIcESaIcEED1Ev(%"class.std::__cxx11::basic_string"* %ref.tmp76) #2
  br label %ehcleanup345

if.end99:                                         ; preds = %if.then97, %cleanup.done91
  store i32 0, i32* %exp, align 4
  %64 = load i32** %radix.addr, align 8
  %65 = load i32* %64, align 4
  %cmp100 = icmp eq i32 %65, 10
  br i1 %cmp100, label %if.then101, label %if.else131

if.then101:                                       ; preds = %if.end99
  %call102 = call i64 @_ZNKSt7__cxx1112basic_stringIcSt11char_traitsIcESaIcEE4findEcm(%"class.std::__cxx11::basic_string"* %val, i8 signext 101, i64 0) #2
  store i64 %call102, i64* %expPos, align 8
  store i8 1, i8* %has_exponent, align 1
  %66 = load i64* %expPos, align 8
  %cmp103 = icmp eq i64 %66, -1
  br i1 %cmp103, label %if.then104, label %if.end106

if.then104:                                       ; preds = %if.then101
  %call105 = call i64 @_ZNKSt7__cxx1112basic_stringIcSt11char_traitsIcESaIcEE4findEcm(%"class.std::__cxx11::basic_string"* %val, i8 signext 69, i64 0) #2
  store i64 %call105, i64* %expPos, align 8
  br label %if.end106

if.end106:                                        ; preds = %if.then104, %if.then101
  %67 = load i64* %expPos, align 8
  %cmp107 = icmp eq i64 %67, -1
  br i1 %cmp107, label %if.then108, label %if.end109

if.then108:                                       ; preds = %if.end106
  %68 = load i64* %len, align 8
  store i64 %68, i64* %expPos, align 8
  store i8 0, i8* %has_exponent, align 1
  br label %if.end109

if.end109:                                        ; preds = %if.then108, %if.end106
  %69 = load i64* %startPos, align 8
  %70 = load i64* %expPos, align 8
  %71 = load i64* %startPos, align 8
  %sub111 = sub i64 %70, %71
  invoke void @_ZNKSt7__cxx1112basic_stringIcSt11char_traitsIcESaIcEE6substrEmm(%"class.std::__cxx11::basic_string"* sret %ref.tmp110, %"class.std::__cxx11::basic_string"* %val, i64 %69, i64 %sub111)
          to label %invoke.cont112 unwind label %lpad

invoke.cont112:                                   ; preds = %if.end109
  %call115 = invoke dereferenceable(32) %"class.std::__cxx11::basic_string"* @_ZNSt7__cxx1112basic_stringIcSt11char_traitsIcESaIcEEpLERKS4_(%"class.std::__cxx11::basic_string"* %ans, %"class.std::__cxx11::basic_string"* dereferenceable(32) %ref.tmp110)
          to label %invoke.cont114 unwind label %lpad113

invoke.cont114:                                   ; preds = %invoke.cont112
  call void @_ZNSt7__cxx1112basic_stringIcSt11char_traitsIcESaIcEED1Ev(%"class.std::__cxx11::basic_string"* %ref.tmp110) #2
  %72 = load i8* %has_exponent, align 1
  %tobool = trunc i8 %72 to i1
  br i1 %tobool, label %if.then117, label %if.end130

if.then117:                                       ; preds = %invoke.cont114
  %73 = load i64* %expPos, align 8
  %add119 = add i64 %73, 1
  %74 = load i64* %len, align 8
  %75 = load i64* %expPos, align 8
  %sub120 = sub i64 %74, %75
  %sub121 = sub i64 %sub120, 1
  invoke void @_ZNKSt7__cxx1112basic_stringIcSt11char_traitsIcESaIcEE6substrEmm(%"class.std::__cxx11::basic_string"* sret %ref.tmp118, %"class.std::__cxx11::basic_string"* %val, i64 %add119, i64 %sub121)
          to label %invoke.cont122 unwind label %lpad

invoke.cont122:                                   ; preds = %if.then117
  invoke void @_ZNSt7__cxx1119basic_istringstreamIcSt11char_traitsIcESaIcEEC1ERKNS_12basic_stringIcS2_S3_EESt13_Ios_Openmode(%"class.std::__cxx11::basic_istringstream"* %iss, %"class.std::__cxx11::basic_string"* dereferenceable(32) %ref.tmp118, i32 8)
          to label %invoke.cont124 unwind label %lpad123

invoke.cont124:                                   ; preds = %invoke.cont122
  call void @_ZNSt7__cxx1112basic_stringIcSt11char_traitsIcESaIcEED1Ev(%"class.std::__cxx11::basic_string"* %ref.tmp118) #2
  %76 = bitcast %"class.std::__cxx11::basic_istringstream"* %iss to %"class.std::basic_istream"*
  %call128 = invoke dereferenceable(280) %"class.std::basic_istream"* @_ZNSirsERi(%"class.std::basic_istream"* %76, i32* dereferenceable(4) %exp)
          to label %invoke.cont127 unwind label %lpad126

invoke.cont127:                                   ; preds = %invoke.cont124
  call void @_ZNSt7__cxx1119basic_istringstreamIcSt11char_traitsIcESaIcEED1Ev(%"class.std::__cxx11::basic_istringstream"* %iss) #2
  br label %if.end130

lpad113:                                          ; preds = %invoke.cont112
  %77 = landingpad { i8*, i32 } personality i8* bitcast (i32 (...)* @__gxx_personality_v0 to i8*)
          cleanup
  %78 = extractvalue { i8*, i32 } %77, 0
  store i8* %78, i8** %exn.slot
  %79 = extractvalue { i8*, i32 } %77, 1
  store i32 %79, i32* %ehselector.slot
  call void @_ZNSt7__cxx1112basic_stringIcSt11char_traitsIcESaIcEED1Ev(%"class.std::__cxx11::basic_string"* %ref.tmp110) #2
  br label %ehcleanup345

lpad123:                                          ; preds = %invoke.cont122
  %80 = landingpad { i8*, i32 } personality i8* bitcast (i32 (...)* @__gxx_personality_v0 to i8*)
          cleanup
  %81 = extractvalue { i8*, i32 } %80, 0
  store i8* %81, i8** %exn.slot
  %82 = extractvalue { i8*, i32 } %80, 1
  store i32 %82, i32* %ehselector.slot
  call void @_ZNSt7__cxx1112basic_stringIcSt11char_traitsIcESaIcEED1Ev(%"class.std::__cxx11::basic_string"* %ref.tmp118) #2
  br label %ehcleanup345

lpad126:                                          ; preds = %invoke.cont124
  %83 = landingpad { i8*, i32 } personality i8* bitcast (i32 (...)* @__gxx_personality_v0 to i8*)
          cleanup
  %84 = extractvalue { i8*, i32 } %83, 0
  store i8* %84, i8** %exn.slot
  %85 = extractvalue { i8*, i32 } %83, 1
  store i32 %85, i32* %ehselector.slot
  call void @_ZNSt7__cxx1119basic_istringstreamIcSt11char_traitsIcESaIcEED1Ev(%"class.std::__cxx11::basic_istringstream"* %iss) #2
  br label %ehcleanup345

if.end130:                                        ; preds = %invoke.cont127, %invoke.cont114
  br label %if.end189

if.else131:                                       ; preds = %if.end99
  %call133 = call i64 @_ZNKSt7__cxx1112basic_stringIcSt11char_traitsIcESaIcEE4findEcm(%"class.std::__cxx11::basic_string"* %val, i8 signext 112, i64 0) #2
  store i64 %call133, i64* %expPos132, align 8
  store i8 1, i8* %has_exponent134, align 1
  %86 = load i64* %expPos132, align 8
  %cmp135 = icmp eq i64 %86, -1
  br i1 %cmp135, label %if.then136, label %if.end138

if.then136:                                       ; preds = %if.else131
  %call137 = call i64 @_ZNKSt7__cxx1112basic_stringIcSt11char_traitsIcESaIcEE4findEcm(%"class.std::__cxx11::basic_string"* %val, i8 signext 80, i64 0) #2
  store i64 %call137, i64* %expPos132, align 8
  br label %if.end138

if.end138:                                        ; preds = %if.then136, %if.else131
  %87 = load i64* %expPos132, align 8
  %cmp139 = icmp eq i64 %87, -1
  br i1 %cmp139, label %if.then140, label %if.end141

if.then140:                                       ; preds = %if.end138
  %88 = load i64* %len, align 8
  store i64 %88, i64* %expPos132, align 8
  store i8 0, i8* %has_exponent134, align 1
  br label %if.end141

if.end141:                                        ; preds = %if.then140, %if.end138
  %89 = load i64* %startPos, align 8
  %90 = load i64* %expPos132, align 8
  %cmp142 = icmp ule i64 %89, %90
  br i1 %cmp142, label %cond.true, label %cond.false

cond.true:                                        ; preds = %if.end141
  br label %cond.end

cond.false:                                       ; preds = %if.end141
  call void @__assert_fail(i8* getelementptr inbounds ([19 x i8]* @.str52, i32 0, i32 0), i8* getelementptr inbounds ([61 x i8]* @.str2, i32 0, i32 0), i32 487, i8* getelementptr inbounds ([68 x i8]* @__PRETTY_FUNCTION__._ZN14ap_private_opsL11parseStringERKNSt7__cxx1112basic_stringIcSt11char_traitsIcESaIcEEERi, i32 0, i32 0)) #12
  unreachable
                                                  ; No predecessors!
  br label %cond.end

cond.end:                                         ; preds = %91, %cond.true
  %92 = load i64* %startPos, align 8
  store i64 %92, i64* %i, align 8
  br label %for.cond

for.cond:                                         ; preds = %for.inc, %cond.end
  %93 = load i64* %i, align 8
  %94 = load i64* %expPos132, align 8
  %cmp143 = icmp ult i64 %93, %94
  br i1 %cmp143, label %for.body, label %for.end

for.body:                                         ; preds = %for.cond
  %95 = load i32** %radix.addr, align 8
  %96 = load i32* %95, align 4
  %cmp144 = icmp eq i32 %96, 16
  br i1 %cmp144, label %if.then145, label %if.else154

if.then145:                                       ; preds = %for.body
  %97 = load i64* %i, align 8
  %call148 = invoke dereferenceable(1) i8* @_ZNSt7__cxx1112basic_stringIcSt11char_traitsIcESaIcEEixEm(%"class.std::__cxx11::basic_string"* %val, i64 %97)
          to label %invoke.cont147 unwind label %lpad

invoke.cont147:                                   ; preds = %if.then145
  %98 = load i8* %call148
  invoke void @_ZN14ap_private_opsL7hex2BinEc(%"class.std::__cxx11::basic_string"* sret %ref.tmp146, i8 signext %98)
          to label %invoke.cont149 unwind label %lpad

invoke.cont149:                                   ; preds = %invoke.cont147
  %call152 = invoke dereferenceable(32) %"class.std::__cxx11::basic_string"* @_ZNSt7__cxx1112basic_stringIcSt11char_traitsIcESaIcEEpLERKS4_(%"class.std::__cxx11::basic_string"* %ans, %"class.std::__cxx11::basic_string"* dereferenceable(32) %ref.tmp146)
          to label %invoke.cont151 unwind label %lpad150

invoke.cont151:                                   ; preds = %invoke.cont149
  call void @_ZNSt7__cxx1112basic_stringIcSt11char_traitsIcESaIcEED1Ev(%"class.std::__cxx11::basic_string"* %ref.tmp146) #2
  br label %if.end171

lpad150:                                          ; preds = %invoke.cont149
  %99 = landingpad { i8*, i32 } personality i8* bitcast (i32 (...)* @__gxx_personality_v0 to i8*)
          cleanup
  %100 = extractvalue { i8*, i32 } %99, 0
  store i8* %100, i8** %exn.slot
  %101 = extractvalue { i8*, i32 } %99, 1
  store i32 %101, i32* %ehselector.slot
  call void @_ZNSt7__cxx1112basic_stringIcSt11char_traitsIcESaIcEED1Ev(%"class.std::__cxx11::basic_string"* %ref.tmp146) #2
  br label %ehcleanup345

if.else154:                                       ; preds = %for.body
  %102 = load i32** %radix.addr, align 8
  %103 = load i32* %102, align 4
  %cmp155 = icmp eq i32 %103, 8
  br i1 %cmp155, label %if.then156, label %if.else165

if.then156:                                       ; preds = %if.else154
  %104 = load i64* %i, align 8
  %call159 = invoke dereferenceable(1) i8* @_ZNSt7__cxx1112basic_stringIcSt11char_traitsIcESaIcEEixEm(%"class.std::__cxx11::basic_string"* %val, i64 %104)
          to label %invoke.cont158 unwind label %lpad

invoke.cont158:                                   ; preds = %if.then156
  %105 = load i8* %call159
  invoke void @_ZN14ap_private_opsL7oct2BinEc(%"class.std::__cxx11::basic_string"* sret %ref.tmp157, i8 signext %105)
          to label %invoke.cont160 unwind label %lpad

invoke.cont160:                                   ; preds = %invoke.cont158
  %call163 = invoke dereferenceable(32) %"class.std::__cxx11::basic_string"* @_ZNSt7__cxx1112basic_stringIcSt11char_traitsIcESaIcEEpLERKS4_(%"class.std::__cxx11::basic_string"* %ans, %"class.std::__cxx11::basic_string"* dereferenceable(32) %ref.tmp157)
          to label %invoke.cont162 unwind label %lpad161

invoke.cont162:                                   ; preds = %invoke.cont160
  call void @_ZNSt7__cxx1112basic_stringIcSt11char_traitsIcESaIcEED1Ev(%"class.std::__cxx11::basic_string"* %ref.tmp157) #2
  br label %if.end170

lpad161:                                          ; preds = %invoke.cont160
  %106 = landingpad { i8*, i32 } personality i8* bitcast (i32 (...)* @__gxx_personality_v0 to i8*)
          cleanup
  %107 = extractvalue { i8*, i32 } %106, 0
  store i8* %107, i8** %exn.slot
  %108 = extractvalue { i8*, i32 } %106, 1
  store i32 %108, i32* %ehselector.slot
  call void @_ZNSt7__cxx1112basic_stringIcSt11char_traitsIcESaIcEED1Ev(%"class.std::__cxx11::basic_string"* %ref.tmp157) #2
  br label %ehcleanup345

if.else165:                                       ; preds = %if.else154
  %109 = load i64* %i, align 8
  %call167 = invoke dereferenceable(1) i8* @_ZNSt7__cxx1112basic_stringIcSt11char_traitsIcESaIcEEixEm(%"class.std::__cxx11::basic_string"* %val, i64 %109)
          to label %invoke.cont166 unwind label %lpad

invoke.cont166:                                   ; preds = %if.else165
  %110 = load i8* %call167
  %call169 = invoke dereferenceable(32) %"class.std::__cxx11::basic_string"* @_ZNSt7__cxx1112basic_stringIcSt11char_traitsIcESaIcEEpLEc(%"class.std::__cxx11::basic_string"* %ans, i8 signext %110)
          to label %invoke.cont168 unwind label %lpad

invoke.cont168:                                   ; preds = %invoke.cont166
  br label %if.end170

if.end170:                                        ; preds = %invoke.cont168, %invoke.cont162
  br label %if.end171

if.end171:                                        ; preds = %if.end170, %invoke.cont151
  br label %for.inc

for.inc:                                          ; preds = %if.end171
  %111 = load i64* %i, align 8
  %inc172 = add i64 %111, 1
  store i64 %inc172, i64* %i, align 8
  br label %for.cond

for.end:                                          ; preds = %for.cond
  %112 = load i32** %radix.addr, align 8
  store i32 2, i32* %112, align 4
  %113 = load i8* %has_exponent134, align 1
  %tobool173 = trunc i8 %113 to i1
  br i1 %tobool173, label %if.then174, label %if.end188

if.then174:                                       ; preds = %for.end
  %114 = load i64* %expPos132, align 8
  %add177 = add i64 %114, 1
  %115 = load i64* %len, align 8
  %116 = load i64* %expPos132, align 8
  %sub178 = sub i64 %115, %116
  %sub179 = sub i64 %sub178, 1
  invoke void @_ZNKSt7__cxx1112basic_stringIcSt11char_traitsIcESaIcEE6substrEmm(%"class.std::__cxx11::basic_string"* sret %ref.tmp176, %"class.std::__cxx11::basic_string"* %val, i64 %add177, i64 %sub179)
          to label %invoke.cont180 unwind label %lpad

invoke.cont180:                                   ; preds = %if.then174
  invoke void @_ZNSt7__cxx1119basic_istringstreamIcSt11char_traitsIcESaIcEEC1ERKNS_12basic_stringIcS2_S3_EESt13_Ios_Openmode(%"class.std::__cxx11::basic_istringstream"* %iss175, %"class.std::__cxx11::basic_string"* dereferenceable(32) %ref.tmp176, i32 8)
          to label %invoke.cont182 unwind label %lpad181

invoke.cont182:                                   ; preds = %invoke.cont180
  call void @_ZNSt7__cxx1112basic_stringIcSt11char_traitsIcESaIcEED1Ev(%"class.std::__cxx11::basic_string"* %ref.tmp176) #2
  %117 = bitcast %"class.std::__cxx11::basic_istringstream"* %iss175 to %"class.std::basic_istream"*
  %call186 = invoke dereferenceable(280) %"class.std::basic_istream"* @_ZNSirsERi(%"class.std::basic_istream"* %117, i32* dereferenceable(4) %exp)
          to label %invoke.cont185 unwind label %lpad184

invoke.cont185:                                   ; preds = %invoke.cont182
  call void @_ZNSt7__cxx1119basic_istringstreamIcSt11char_traitsIcESaIcEED1Ev(%"class.std::__cxx11::basic_istringstream"* %iss175) #2
  br label %if.end188

lpad181:                                          ; preds = %invoke.cont180
  %118 = landingpad { i8*, i32 } personality i8* bitcast (i32 (...)* @__gxx_personality_v0 to i8*)
          cleanup
  %119 = extractvalue { i8*, i32 } %118, 0
  store i8* %119, i8** %exn.slot
  %120 = extractvalue { i8*, i32 } %118, 1
  store i32 %120, i32* %ehselector.slot
  call void @_ZNSt7__cxx1112basic_stringIcSt11char_traitsIcESaIcEED1Ev(%"class.std::__cxx11::basic_string"* %ref.tmp176) #2
  br label %ehcleanup345

lpad184:                                          ; preds = %invoke.cont182
  %121 = landingpad { i8*, i32 } personality i8* bitcast (i32 (...)* @__gxx_personality_v0 to i8*)
          cleanup
  %122 = extractvalue { i8*, i32 } %121, 0
  store i8* %122, i8** %exn.slot
  %123 = extractvalue { i8*, i32 } %121, 1
  store i32 %123, i32* %ehselector.slot
  call void @_ZNSt7__cxx1119basic_istringstreamIcSt11char_traitsIcESaIcEED1Ev(%"class.std::__cxx11::basic_istringstream"* %iss175) #2
  br label %ehcleanup345

if.end188:                                        ; preds = %invoke.cont185, %for.end
  br label %if.end189

if.end189:                                        ; preds = %if.end188, %if.end130
  %124 = load i32* %exp, align 4
  %cmp190 = icmp eq i32 %124, 0
  br i1 %cmp190, label %if.then191, label %if.end192

if.then191:                                       ; preds = %if.end189
  call void @_ZNSt7__cxx1112basic_stringIcSt11char_traitsIcESaIcEEC1EOS4_(%"class.std::__cxx11::basic_string"* %agg.result, %"class.std::__cxx11::basic_string"* dereferenceable(32) %ans) #2
  store i32 1, i32* %cleanup.dest.slot
  br label %cleanup

if.end192:                                        ; preds = %if.end189
  %call193 = call i64 @_ZNKSt7__cxx1112basic_stringIcSt11char_traitsIcESaIcEE4findEcm(%"class.std::__cxx11::basic_string"* %ans, i8 signext 46, i64 0) #2
  store i64 %call193, i64* %decPos, align 8
  %125 = load i64* %decPos, align 8
  %cmp194 = icmp eq i64 %125, -1
  br i1 %cmp194, label %if.then195, label %if.end197

if.then195:                                       ; preds = %if.end192
  %call196 = call i64 @_ZNKSt7__cxx1112basic_stringIcSt11char_traitsIcESaIcEE6lengthEv(%"class.std::__cxx11::basic_string"* %ans) #2
  store i64 %call196, i64* %decPos, align 8
  br label %if.end197

if.end197:                                        ; preds = %if.then195, %if.end192
  %126 = load i64* %decPos, align 8
  %conv198 = trunc i64 %126 to i32
  %127 = load i32* %exp, align 4
  %add199 = add nsw i32 %conv198, %127
  %call200 = call i64 @_ZNKSt7__cxx1112basic_stringIcSt11char_traitsIcESaIcEE6lengthEv(%"class.std::__cxx11::basic_string"* %ans) #2
  %conv201 = trunc i64 %call200 to i32
  %cmp202 = icmp sge i32 %add199, %conv201
  br i1 %cmp202, label %if.then203, label %if.else243

if.then203:                                       ; preds = %if.end197
  %128 = load i64* %decPos, align 8
  %conv205 = trunc i64 %128 to i32
  store i32 %conv205, i32* %i204, align 4
  br label %for.cond206

for.cond206:                                      ; preds = %for.inc219, %if.then203
  %129 = load i32* %i204, align 4
  %call207 = call i64 @_ZNKSt7__cxx1112basic_stringIcSt11char_traitsIcESaIcEE6lengthEv(%"class.std::__cxx11::basic_string"* %ans) #2
  %conv208 = trunc i64 %call207 to i32
  %sub209 = sub nsw i32 %conv208, 1
  %cmp210 = icmp slt i32 %129, %sub209
  br i1 %cmp210, label %for.body211, label %for.end221

for.body211:                                      ; preds = %for.cond206
  %130 = load i32* %i204, align 4
  %add212 = add nsw i32 %130, 1
  %conv213 = sext i32 %add212 to i64
  %call215 = invoke dereferenceable(1) i8* @_ZNSt7__cxx1112basic_stringIcSt11char_traitsIcESaIcEEixEm(%"class.std::__cxx11::basic_string"* %ans, i64 %conv213)
          to label %invoke.cont214 unwind label %lpad

invoke.cont214:                                   ; preds = %for.body211
  %131 = load i8* %call215
  %132 = load i32* %i204, align 4
  %conv216 = sext i32 %132 to i64
  %call218 = invoke dereferenceable(1) i8* @_ZNSt7__cxx1112basic_stringIcSt11char_traitsIcESaIcEEixEm(%"class.std::__cxx11::basic_string"* %ans, i64 %conv216)
          to label %invoke.cont217 unwind label %lpad

invoke.cont217:                                   ; preds = %invoke.cont214
  store i8 %131, i8* %call218
  br label %for.inc219

for.inc219:                                       ; preds = %invoke.cont217
  %133 = load i32* %i204, align 4
  %inc220 = add nsw i32 %133, 1
  store i32 %inc220, i32* %i204, align 4
  br label %for.cond206

for.end221:                                       ; preds = %for.cond206
  br label %for.cond222

for.cond222:                                      ; preds = %for.inc230, %for.end221
  %134 = load i32* %i204, align 4
  %call223 = call i64 @_ZNKSt7__cxx1112basic_stringIcSt11char_traitsIcESaIcEE6lengthEv(%"class.std::__cxx11::basic_string"* %ans) #2
  %conv224 = trunc i64 %call223 to i32
  %cmp225 = icmp slt i32 %134, %conv224
  br i1 %cmp225, label %for.body226, label %for.end232

for.body226:                                      ; preds = %for.cond222
  %135 = load i32* %i204, align 4
  %conv227 = sext i32 %135 to i64
  %call229 = invoke dereferenceable(1) i8* @_ZNSt7__cxx1112basic_stringIcSt11char_traitsIcESaIcEEixEm(%"class.std::__cxx11::basic_string"* %ans, i64 %conv227)
          to label %invoke.cont228 unwind label %lpad

invoke.cont228:                                   ; preds = %for.body226
  store i8 48, i8* %call229
  br label %for.inc230

for.inc230:                                       ; preds = %invoke.cont228
  %136 = load i32* %i204, align 4
  %inc231 = add nsw i32 %136, 1
  store i32 %inc231, i32* %i204, align 4
  br label %for.cond222

for.end232:                                       ; preds = %for.cond222
  br label %for.cond233

for.cond233:                                      ; preds = %for.inc240, %for.end232
  %137 = load i32* %i204, align 4
  %138 = load i64* %decPos, align 8
  %conv234 = trunc i64 %138 to i32
  %139 = load i32* %exp, align 4
  %add235 = add nsw i32 %conv234, %139
  %cmp236 = icmp slt i32 %137, %add235
  br i1 %cmp236, label %for.body237, label %for.end242

for.body237:                                      ; preds = %for.cond233
  %call239 = invoke dereferenceable(32) %"class.std::__cxx11::basic_string"* @_ZNSt7__cxx1112basic_stringIcSt11char_traitsIcESaIcEEpLEc(%"class.std::__cxx11::basic_string"* %ans, i8 signext 48)
          to label %invoke.cont238 unwind label %lpad

invoke.cont238:                                   ; preds = %for.body237
  br label %for.inc240

for.inc240:                                       ; preds = %invoke.cont238
  %140 = load i32* %i204, align 4
  %inc241 = add nsw i32 %140, 1
  store i32 %inc241, i32* %i204, align 4
  br label %for.cond233

for.end242:                                       ; preds = %for.cond233
  call void @_ZNSt7__cxx1112basic_stringIcSt11char_traitsIcESaIcEEC1EOS4_(%"class.std::__cxx11::basic_string"* %agg.result, %"class.std::__cxx11::basic_string"* dereferenceable(32) %ans) #2
  store i32 1, i32* %cleanup.dest.slot
  br label %cleanup

if.else243:                                       ; preds = %if.end197
  %141 = load i64* %decPos, align 8
  %conv244 = trunc i64 %141 to i32
  %142 = load i32* %exp, align 4
  %add245 = add nsw i32 %conv244, %142
  %143 = load i8* %isNegative, align 1
  %tobool246 = trunc i8 %143 to i1
  %conv247 = zext i1 %tobool246 to i32
  %cmp248 = icmp slt i32 %add245, %conv247
  br i1 %cmp248, label %if.then249, label %if.end298

if.then249:                                       ; preds = %if.else243
  store i1 false, i1* %nrvo
  call void @_ZNSaIcEC1Ev(%"class.std::allocator"* %ref.tmp250) #2
  invoke void @_ZNSt7__cxx1112basic_stringIcSt11char_traitsIcESaIcEEC1EPKcRKS3_(%"class.std::__cxx11::basic_string"* %agg.result, i8* getelementptr inbounds ([3 x i8]* @.str53, i32 0, i32 0), %"class.std::allocator"* dereferenceable(1) %ref.tmp250)
          to label %invoke.cont252 unwind label %lpad251

invoke.cont252:                                   ; preds = %if.then249
  call void @_ZNSaIcED1Ev(%"class.std::allocator"* %ref.tmp250) #2
  %call256 = invoke dereferenceable(1) i8* @_ZNSt7__cxx1112basic_stringIcSt11char_traitsIcESaIcEEixEm(%"class.std::__cxx11::basic_string"* %ans, i64 0)
          to label %invoke.cont255 unwind label %lpad254

invoke.cont255:                                   ; preds = %invoke.cont252
  %144 = load i8* %call256
  %conv257 = sext i8 %144 to i32
  %cmp258 = icmp eq i32 %conv257, 45
  br i1 %cmp258, label %if.then259, label %if.end262

if.then259:                                       ; preds = %invoke.cont255
  %call261 = invoke dereferenceable(32) %"class.std::__cxx11::basic_string"* @_ZNSt7__cxx1112basic_stringIcSt11char_traitsIcESaIcEEaSEPKc(%"class.std::__cxx11::basic_string"* %agg.result, i8* getelementptr inbounds ([4 x i8]* @.str54, i32 0, i32 0))
          to label %invoke.cont260 unwind label %lpad254

invoke.cont260:                                   ; preds = %if.then259
  br label %if.end262

lpad251:                                          ; preds = %if.then249
  %145 = landingpad { i8*, i32 } personality i8* bitcast (i32 (...)* @__gxx_personality_v0 to i8*)
          cleanup
  %146 = extractvalue { i8*, i32 } %145, 0
  store i8* %146, i8** %exn.slot
  %147 = extractvalue { i8*, i32 } %145, 1
  store i32 %147, i32* %ehselector.slot
  call void @_ZNSaIcED1Ev(%"class.std::allocator"* %ref.tmp250) #2
  br label %ehcleanup345

lpad254:                                          ; preds = %invoke.cont289, %if.then288, %for.body283, %for.body271, %if.then259, %invoke.cont252
  %148 = landingpad { i8*, i32 } personality i8* bitcast (i32 (...)* @__gxx_personality_v0 to i8*)
          cleanup
  %149 = extractvalue { i8*, i32 } %148, 0
  store i8* %149, i8** %exn.slot
  %150 = extractvalue { i8*, i32 } %148, 1
  store i32 %150, i32* %ehselector.slot
  call void @_ZNSt7__cxx1112basic_stringIcSt11char_traitsIcESaIcEED1Ev(%"class.std::__cxx11::basic_string"* %agg.result) #2
  br label %ehcleanup345

if.end262:                                        ; preds = %invoke.cont260, %invoke.cont255
  store i32 0, i32* %i263, align 4
  br label %for.cond264

for.cond264:                                      ; preds = %for.inc274, %if.end262
  %151 = load i32* %i263, align 4
  %152 = load i8* %isNegative, align 1
  %tobool265 = trunc i8 %152 to i1
  %conv266 = zext i1 %tobool265 to i32
  %153 = load i64* %decPos, align 8
  %conv267 = trunc i64 %153 to i32
  %sub268 = sub nsw i32 %conv266, %conv267
  %154 = load i32* %exp, align 4
  %sub269 = sub nsw i32 %sub268, %154
  %cmp270 = icmp slt i32 %151, %sub269
  br i1 %cmp270, label %for.body271, label %for.end276

for.body271:                                      ; preds = %for.cond264
  %call273 = invoke dereferenceable(32) %"class.std::__cxx11::basic_string"* @_ZNSt7__cxx1112basic_stringIcSt11char_traitsIcESaIcEEpLEc(%"class.std::__cxx11::basic_string"* %agg.result, i8 signext 48)
          to label %invoke.cont272 unwind label %lpad254

invoke.cont272:                                   ; preds = %for.body271
  br label %for.inc274

for.inc274:                                       ; preds = %invoke.cont272
  %155 = load i32* %i263, align 4
  %inc275 = add nsw i32 %155, 1
  store i32 %inc275, i32* %i263, align 4
  br label %for.cond264

for.end276:                                       ; preds = %for.cond264
  %156 = load i8* %isNegative, align 1
  %tobool278 = trunc i8 %156 to i1
  %conv279 = zext i1 %tobool278 to i64
  store i64 %conv279, i64* %i277, align 8
  br label %for.cond280

for.cond280:                                      ; preds = %for.inc294, %for.end276
  %157 = load i64* %i277, align 8
  %call281 = call i64 @_ZNKSt7__cxx1112basic_stringIcSt11char_traitsIcESaIcEE6lengthEv(%"class.std::__cxx11::basic_string"* %ans) #2
  %cmp282 = icmp ult i64 %157, %call281
  br i1 %cmp282, label %for.body283, label %for.end296

for.body283:                                      ; preds = %for.cond280
  %158 = load i64* %i277, align 8
  %call285 = invoke dereferenceable(1) i8* @_ZNSt7__cxx1112basic_stringIcSt11char_traitsIcESaIcEEixEm(%"class.std::__cxx11::basic_string"* %ans, i64 %158)
          to label %invoke.cont284 unwind label %lpad254

invoke.cont284:                                   ; preds = %for.body283
  %159 = load i8* %call285
  %conv286 = sext i8 %159 to i32
  %cmp287 = icmp ne i32 %conv286, 46
  br i1 %cmp287, label %if.then288, label %if.end293

if.then288:                                       ; preds = %invoke.cont284
  %160 = load i64* %i277, align 8
  %call290 = invoke dereferenceable(1) i8* @_ZNSt7__cxx1112basic_stringIcSt11char_traitsIcESaIcEEixEm(%"class.std::__cxx11::basic_string"* %ans, i64 %160)
          to label %invoke.cont289 unwind label %lpad254

invoke.cont289:                                   ; preds = %if.then288
  %161 = load i8* %call290
  %call292 = invoke dereferenceable(32) %"class.std::__cxx11::basic_string"* @_ZNSt7__cxx1112basic_stringIcSt11char_traitsIcESaIcEEpLEc(%"class.std::__cxx11::basic_string"* %agg.result, i8 signext %161)
          to label %invoke.cont291 unwind label %lpad254

invoke.cont291:                                   ; preds = %invoke.cont289
  br label %if.end293

if.end293:                                        ; preds = %invoke.cont291, %invoke.cont284
  br label %for.inc294

for.inc294:                                       ; preds = %if.end293
  %162 = load i64* %i277, align 8
  %inc295 = add i64 %162, 1
  store i64 %inc295, i64* %i277, align 8
  br label %for.cond280

for.end296:                                       ; preds = %for.cond280
  store i1 true, i1* %nrvo
  store i32 1, i32* %cleanup.dest.slot
  %nrvo.val = load i1* %nrvo
  br i1 %nrvo.val, label %nrvo.skipdtor, label %nrvo.unused

nrvo.unused:                                      ; preds = %for.end296
  call void @_ZNSt7__cxx1112basic_stringIcSt11char_traitsIcESaIcEED1Ev(%"class.std::__cxx11::basic_string"* %agg.result) #2
  br label %nrvo.skipdtor

nrvo.skipdtor:                                    ; preds = %nrvo.unused, %for.end296
  br label %cleanup

if.end298:                                        ; preds = %if.else243
  br label %if.end299

if.end299:                                        ; preds = %if.end298
  %163 = load i32* %exp, align 4
  %cmp300 = icmp sgt i32 %163, 0
  br i1 %cmp300, label %if.then301, label %if.else316

if.then301:                                       ; preds = %if.end299
  %164 = load i64* %decPos, align 8
  store i64 %164, i64* %i302, align 8
  br label %for.cond303

for.cond303:                                      ; preds = %for.inc313, %if.then301
  %165 = load i64* %i302, align 8
  %166 = load i64* %decPos, align 8
  %167 = load i32* %exp, align 4
  %conv304 = sext i32 %167 to i64
  %add305 = add i64 %166, %conv304
  %cmp306 = icmp ult i64 %165, %add305
  br i1 %cmp306, label %for.body307, label %for.end315

for.body307:                                      ; preds = %for.cond303
  %168 = load i64* %i302, align 8
  %add308 = add i64 %168, 1
  %call310 = invoke dereferenceable(1) i8* @_ZNSt7__cxx1112basic_stringIcSt11char_traitsIcESaIcEEixEm(%"class.std::__cxx11::basic_string"* %ans, i64 %add308)
          to label %invoke.cont309 unwind label %lpad

invoke.cont309:                                   ; preds = %for.body307
  %169 = load i8* %call310
  %170 = load i64* %i302, align 8
  %call312 = invoke dereferenceable(1) i8* @_ZNSt7__cxx1112basic_stringIcSt11char_traitsIcESaIcEEixEm(%"class.std::__cxx11::basic_string"* %ans, i64 %170)
          to label %invoke.cont311 unwind label %lpad

invoke.cont311:                                   ; preds = %invoke.cont309
  store i8 %169, i8* %call312
  br label %for.inc313

for.inc313:                                       ; preds = %invoke.cont311
  %171 = load i64* %i302, align 8
  %inc314 = add i64 %171, 1
  store i64 %inc314, i64* %i302, align 8
  br label %for.cond303

for.end315:                                       ; preds = %for.cond303
  br label %if.end340

if.else316:                                       ; preds = %if.end299
  %172 = load i64* %decPos, align 8
  %call317 = call i64 @_ZNKSt7__cxx1112basic_stringIcSt11char_traitsIcESaIcEE6lengthEv(%"class.std::__cxx11::basic_string"* %ans) #2
  %cmp318 = icmp eq i64 %172, %call317
  br i1 %cmp318, label %if.then319, label %if.end322

if.then319:                                       ; preds = %if.else316
  %call321 = invoke dereferenceable(32) %"class.std::__cxx11::basic_string"* @_ZNSt7__cxx1112basic_stringIcSt11char_traitsIcESaIcEEpLEc(%"class.std::__cxx11::basic_string"* %ans, i8 signext 32)
          to label %invoke.cont320 unwind label %lpad

invoke.cont320:                                   ; preds = %if.then319
  br label %if.end322

if.end322:                                        ; preds = %invoke.cont320, %if.else316
  %173 = load i64* %decPos, align 8
  %conv324 = trunc i64 %173 to i32
  store i32 %conv324, i32* %i323, align 4
  br label %for.cond325

for.cond325:                                      ; preds = %for.inc337, %if.end322
  %174 = load i32* %i323, align 4
  %175 = load i64* %decPos, align 8
  %conv326 = trunc i64 %175 to i32
  %176 = load i32* %exp, align 4
  %add327 = add nsw i32 %conv326, %176
  %cmp328 = icmp sgt i32 %174, %add327
  br i1 %cmp328, label %for.body329, label %for.end339

for.body329:                                      ; preds = %for.cond325
  %177 = load i32* %i323, align 4
  %sub330 = sub nsw i32 %177, 1
  %conv331 = sext i32 %sub330 to i64
  %call333 = invoke dereferenceable(1) i8* @_ZNSt7__cxx1112basic_stringIcSt11char_traitsIcESaIcEEixEm(%"class.std::__cxx11::basic_string"* %ans, i64 %conv331)
          to label %invoke.cont332 unwind label %lpad

invoke.cont332:                                   ; preds = %for.body329
  %178 = load i8* %call333
  %179 = load i32* %i323, align 4
  %conv334 = sext i32 %179 to i64
  %call336 = invoke dereferenceable(1) i8* @_ZNSt7__cxx1112basic_stringIcSt11char_traitsIcESaIcEEixEm(%"class.std::__cxx11::basic_string"* %ans, i64 %conv334)
          to label %invoke.cont335 unwind label %lpad

invoke.cont335:                                   ; preds = %invoke.cont332
  store i8 %178, i8* %call336
  br label %for.inc337

for.inc337:                                       ; preds = %invoke.cont335
  %180 = load i32* %i323, align 4
  %dec338 = add nsw i32 %180, -1
  store i32 %dec338, i32* %i323, align 4
  br label %for.cond325

for.end339:                                       ; preds = %for.cond325
  br label %if.end340

if.end340:                                        ; preds = %for.end339, %for.end315
  %181 = load i64* %decPos, align 8
  %182 = load i32* %exp, align 4
  %conv341 = sext i32 %182 to i64
  %add342 = add i64 %181, %conv341
  %call344 = invoke dereferenceable(1) i8* @_ZNSt7__cxx1112basic_stringIcSt11char_traitsIcESaIcEEixEm(%"class.std::__cxx11::basic_string"* %ans, i64 %add342)
          to label %invoke.cont343 unwind label %lpad

invoke.cont343:                                   ; preds = %if.end340
  store i8 46, i8* %call344
  call void @_ZNSt7__cxx1112basic_stringIcSt11char_traitsIcESaIcEEC1EOS4_(%"class.std::__cxx11::basic_string"* %agg.result, %"class.std::__cxx11::basic_string"* dereferenceable(32) %ans) #2
  store i32 1, i32* %cleanup.dest.slot
  br label %cleanup

cleanup:                                          ; preds = %invoke.cont343, %nrvo.skipdtor, %for.end242, %if.then191, %if.then35
  call void @_ZNSt7__cxx1112basic_stringIcSt11char_traitsIcESaIcEED1Ev(%"class.std::__cxx11::basic_string"* %ans) #2
  br label %cleanup346

ehcleanup345:                                     ; preds = %lpad254, %lpad251, %lpad184, %lpad181, %lpad161, %lpad150, %lpad126, %lpad123, %lpad113, %ehcleanup96, %ehcleanup71, %ehcleanup, %lpad
  call void @_ZNSt7__cxx1112basic_stringIcSt11char_traitsIcESaIcEED1Ev(%"class.std::__cxx11::basic_string"* %ans) #2
  call void @_ZNSt7__cxx1112basic_stringIcSt11char_traitsIcESaIcEED1Ev(%"class.std::__cxx11::basic_string"* %val) #2
  br label %eh.resume

cleanup346:                                       ; preds = %cleanup, %if.then16
  call void @_ZNSt7__cxx1112basic_stringIcSt11char_traitsIcESaIcEED1Ev(%"class.std::__cxx11::basic_string"* %val) #2
  br label %return

return:                                           ; preds = %cleanup346, %if.then
  ret void

eh.resume:                                        ; preds = %ehcleanup345
  %exn = load i8** %exn.slot
  %sel = load i32* %ehselector.slot
  %lpad.val = insertvalue { i8*, i32 } undef, i8* %exn, 0
  %lpad.val348 = insertvalue { i8*, i32 } %lpad.val, i32 %sel, 1
  resume { i8*, i32 } %lpad.val348
}

; Function Attrs: nounwind
declare void @_ZNSaIcEC1Ev(%"class.std::allocator"*) #1

declare void @_ZNSt7__cxx1112basic_stringIcSt11char_traitsIcESaIcEEC1EPKcRKS3_(%"class.std::__cxx11::basic_string"*, i8*, %"class.std::allocator"* dereferenceable(1)) #0

; Function Attrs: nounwind
declare void @_ZNSaIcED1Ev(%"class.std::allocator"*) #1

; Function Attrs: nounwind
declare i64 @_ZNKSt7__cxx1112basic_stringIcSt11char_traitsIcESaIcEE4findEcm(%"class.std::__cxx11::basic_string"*, i8 signext, i64) #1

; Function Attrs: nounwind
declare dereferenceable(32) %"class.std::__cxx11::basic_string"* @_ZNSt7__cxx1112basic_stringIcSt11char_traitsIcESaIcEEaSEOS4_(%"class.std::__cxx11::basic_string"*, %"class.std::__cxx11::basic_string"* dereferenceable(32)) #1

declare void @_ZNKSt7__cxx1112basic_stringIcSt11char_traitsIcESaIcEE6substrEmm(%"class.std::__cxx11::basic_string"* sret, %"class.std::__cxx11::basic_string"*, i64, i64) #0

; Function Attrs: inlinehint uwtable
define linkonce_odr void @_ZN10ap_privateILi1024ELb1ELb0EEC2ERKNSt7__cxx1112basic_stringIcSt11char_traitsIcESaIcEEEh(%class.ap_private* %this, %"class.std::__cxx11::basic_string"* dereferenceable(32) %val, i8 zeroext %radix) unnamed_addr #4 align 2 {
entry:
  %this.addr = alloca %class.ap_private*, align 8
  %val.addr = alloca %"class.std::__cxx11::basic_string"*, align 8
  %radix.addr = alloca i8, align 1
  %c_str = alloca i8*, align 8
  store %class.ap_private* %this, %class.ap_private** %this.addr, align 8
  store %"class.std::__cxx11::basic_string"* %val, %"class.std::__cxx11::basic_string"** %val.addr, align 8
  store i8 %radix, i8* %radix.addr, align 1
  %this1 = load %class.ap_private** %this.addr
  call void @_ZN10ap_privateILi1024ELb1ELb0EE10set_canaryEv(%class.ap_private* %this1)
  %0 = load %"class.std::__cxx11::basic_string"** %val.addr, align 8
  %call = call zeroext i1 @_ZNKSt7__cxx1112basic_stringIcSt11char_traitsIcESaIcEE5emptyEv(%"class.std::__cxx11::basic_string"* %0) #2
  br i1 %call, label %cond.false, label %cond.true

cond.true:                                        ; preds = %entry
  br label %cond.end

cond.false:                                       ; preds = %entry
  call void @__assert_fail(i8* getelementptr inbounds ([45 x i8]* @.str35, i32 0, i32 0), i8* getelementptr inbounds ([61 x i8]* @.str2, i32 0, i32 0), i32 2944, i8* getelementptr inbounds ([116 x i8]* @__PRETTY_FUNCTION__._ZN10ap_privateILi1024ELb1ELb0EEC2ERKNSt7__cxx1112basic_stringIcSt11char_traitsIcESaIcEEEh, i32 0, i32 0)) #12
  unreachable
                                                  ; No predecessors!
  br label %cond.end

cond.end:                                         ; preds = %1, %cond.true
  %2 = load %"class.std::__cxx11::basic_string"** %val.addr, align 8
  %call2 = call i8* @_ZNKSt7__cxx1112basic_stringIcSt11char_traitsIcESaIcEE5c_strEv(%"class.std::__cxx11::basic_string"* %2) #2
  store i8* %call2, i8** %c_str, align 8
  %3 = load i8** %c_str, align 8
  %4 = load %"class.std::__cxx11::basic_string"** %val.addr, align 8
  %call3 = call i64 @_ZNKSt7__cxx1112basic_stringIcSt11char_traitsIcESaIcEE4sizeEv(%"class.std::__cxx11::basic_string"* %4) #2
  %conv = trunc i64 %call3 to i32
  %5 = load i8* %radix.addr, align 1
  call void @_ZN10ap_privateILi1024ELb1ELb0EE10fromStringEPKcjh(%class.ap_private* %this1, i8* %3, i32 %conv, i8 zeroext %5)
  call void @_ZN10ap_privateILi1024ELb1ELb0EE12check_canaryEv(%class.ap_private* %this1)
  ret void
}

; Function Attrs: inlinehint uwtable
define linkonce_odr dereferenceable(128) %class.ap_private* @_ZN10ap_privateILi1024ELb1ELb0EEaSERKS0_(%class.ap_private* %this, %class.ap_private* dereferenceable(128) %RHS) #4 align 2 {
entry:
  %this.addr = alloca %class.ap_private*, align 8
  %RHS.addr = alloca %class.ap_private*, align 8
  store %class.ap_private* %this, %class.ap_private** %this.addr, align 8
  store %class.ap_private* %RHS, %class.ap_private** %RHS.addr, align 8
  %this1 = load %class.ap_private** %this.addr
  %0 = load %class.ap_private** %RHS.addr, align 8
  %cmp = icmp ne %class.ap_private* %this1, %0
  br i1 %cmp, label %if.then, label %if.end

if.then:                                          ; preds = %entry
  %pVal = getelementptr inbounds %class.ap_private* %this1, i32 0, i32 0
  %1 = bitcast [16 x i64]* %pVal to i8*
  %2 = load %class.ap_private** %RHS.addr, align 8
  %call = call i64* @_ZNK10ap_privateILi1024ELb1ELb0EE8get_pValEv(%class.ap_private* %2)
  %3 = bitcast i64* %call to i8*
  call void @llvm.memcpy.p0i8.p0i8.i64(i8* %1, i8* %3, i64 128, i32 8, i1 false)
  br label %if.end

if.end:                                           ; preds = %if.then, %entry
  ret %class.ap_private* %this1
}

; Function Attrs: inlinehint nounwind uwtable
define linkonce_odr void @_ZN10ap_privateILi1024ELb1ELb0EE6reportEv(%class.ap_private* %this) #5 align 2 {
entry:
  %this.addr = alloca %class.ap_private*, align 8
  store %class.ap_private* %this, %class.ap_private** %this.addr, align 8
  %this1 = load %class.ap_private** %this.addr
  ret void
}

; Function Attrs: inlinehint nounwind uwtable
define linkonce_odr i64* @_ZNK10ap_privateILi1024ELb1ELb0EE8get_pValEv(%class.ap_private* %this) #5 align 2 {
entry:
  %this.addr = alloca %class.ap_private*, align 8
  store %class.ap_private* %this, %class.ap_private** %this.addr, align 8
